Certificate:
    Data:
        Version: 3 (0x2)
        Serial Number:
            0a:37:87:64:5e:5f:b4:8c:22:4e:fd:1b:ed:14:0c:3c
        Signature Algorithm: sha256WithRSAEncryption
        Issuer: C = IE, O = Baltimore, OU = CyberTrust, CN = Baltimore CyberTrust Root
        Validity
            Not Before: Jan 27 12:48:08 2020 GMT
            Not After : Dec 31 23:59:59 2024 GMT
        Subject: C = US, O = "Cloudflare, Inc.", CN = Cloudflare Inc ECC CA-3
        Subject Public Key Info:
            Public Key Algorithm: id-ecPublicKey
                Public-Key: (256 bit)
                pub:
                    04:b9:ad:4d:66:99:14:0b:46:ec:1f:81:d1:2a:50:
                    1e:9d:03:15:2f:34:12:7d:2d:96:b8:88:38:9b:85:
                    5f:8f:bf:bb:4d:ef:61:46:c4:c9:73:d4:24:4f:e0:
                    ee:1c:ce:6c:b3:51:71:2f:6a:ee:4c:05:09:77:d3:
                    72:62:a4:9b:d7
                ASN1 OID: prime256v1
                NIST CURVE: P-256
        X509v3 extensions:
            X509v3 Subject Key Identifier: 
                A5:CE:37:EA:EB:B0:75:0E:94:67:88:B4:45:FA:D9:24:10:87:96:1F
            X509v3 Authority Key Identifier: 
                E5:9D:59:30:82:47:58:CC:AC:FA:08:54:36:86:7B:3A:B5:04:4D:F0
            X509v3 Key Usage: critical
                Digital Signature, Certificate Sign, CRL Sign
            X509v3 Extended Key Usage: 
                TLS Web Server Authentication, TLS Web Client Authentication
            X509v3 Basic Constraints: critical
                CA:TRUE, pathlen:0
            Authority Information Access: 
                OCSP - URI:http://ocsp.digicert.com
            X509v3 CRL Distribution Points: 
                Full Name:
                  URI:http://crl3.digicert.com/Omniroot2025.crl
            X509v3 Certificate Policies: 
                Policy: 2.16.840.1.114412.1.1
                  CPS: https://www.digicert.com/CPS
                Policy: 2.16.840.1.114412.1.2
                Policy: 2.23.140.1.2.1
                Policy: 2.23.140.1.2.2
                Policy: 2.23.140.1.2.3
    Signature Algorithm: sha256WithRSAEncryption
    Signature Value:
        05:24:1d:dd:1b:b0:2a:eb:98:d6:85:e3:39:4d:5e:6b:57:9d:
        82:57:fc:eb:e8:31:a2:57:90:65:05:be:16:44:38:5a:77:02:
        b9:cf:10:42:c6:e1:92:a4:e3:45:27:f8:00:47:2c:68:a8:56:
        99:53:54:8f:ad:9e:40:c1:d0:0f:b6:d7:0d:0b:38:48:6c:50:
        2c:49:90:06:5b:64:1d:8b:cc:48:30:2e:de:08:e2:9b:49:22:
        c0:92:0c:11:5e:96:92:94:d5:fc:20:dc:56:6c:e5:92:93:bf:
        7a:1c:c0:37:e3:85:49:15:fa:2b:e1:74:39:18:0f:b7:da:f3:
        a2:57:58:60:4f:cc:8e:94:00:fc:46:7b:34:31:3e:4d:47:82:
        81:3a:cb:f4:89:5d:0e:ef:4d:0d:6e:9c:1b:82:24:dd:32:25:
        5d:11:78:51:10:3d:a0:35:23:04:2f:65:6f:9c:c1:d1:43:d7:
        d0:1e:f3:31:67:59:27:dd:6b:d2:75:09:93:11:24:24:14:cf:
        29:be:e6:23:c3:b8:8f:72:3f:e9:07:c8:24:44:53:7a:b3:b9:
        61:65:a1:4c:0e:c6:48:00:c9:75:63:05:87:70:45:52:83:d3:
        95:9d:45:ea:f0:e8:31:1d:7e:09:1f:0a:fe:3e:dd:aa:3c:5e:
        74:d2:ac:b1
-----BEGIN CERTIFICATE-----
MIIDzTCCArWgAwIBAgIQCjeHZF5ftIwiTv0b7RQMPDANBgkqhkiG9w0BAQsFADBa
MQswCQYDVQQGEwJJRTESMBAGA1UEChMJQmFsdGltb3JlMRMwEQYDVQQLEwpDeWJl
clRydXN0MSIwIAYDVQQDExlCYWx0aW1vcmUgQ3liZXJUcnVzdCBSb290MB4XDTIw
MDEyNzEyNDgwOFoXDTI0MTIzMTIzNTk1OVowSjELMAkGA1UEBhMCVVMxGTAXBgNV
BAoTEENsb3VkZmxhcmUsIEluYy4xIDAeBgNVBAMTF0Nsb3VkZmxhcmUgSW5jIEVD
QyBDQS0zMFkwEwYHKoZIzj0CAQYIKoZIzj0DAQcDQgAEua1NZpkUC0bsH4HRKlAe
nQMVLzQSfS2WuIg4m4Vfj7+7Te9hRsTJc9QkT+DuHM5ss1FxL2ruTAUJd9NyYqSb
16OCAWgwggFkMB0GA1UdDgQWBBSlzjfq67B1DpRniLRF+tkkEIeWHzAfBgNVHSME
GDAWgBTlnVkwgkdYzKz6CFQ2hns6tQRN8DAOBgNVHQ8BAf8EBAMCAYYwHQYDVR0l
BBYwFAYIKwYBBQUHAwEGCCsGAQUFBwMCMBIGA1UdEwEB/wQIMAYBAf8CAQAwNAYI
KwYBBQUHAQEEKDAmMCQGCCsGAQUFBzABhhhodHRwOi8vb2NzcC5kaWdpY2VydC5j
b20wOgYDVR0fBDMwMTAvoC2gK4YpaHR0cDovL2NybDMuZGlnaWNlcnQuY29tL09t
bmlyb290MjAyNS5jcmwwbQYDVR0gBGYwZDA3BglghkgBhv1sAQEwKjAoBggrBgEF
BQcCARYcaHR0cHM6Ly93d3cuZGlnaWNlcnQuY29tL0NQUzALBglghkgBhv1sAQIw
CAYGZ4EMAQIBMAgGBmeBDAECAjAIBgZngQwBAgMwDQYJKoZIhvcNAQELBQADggEB
AAUkHd0bsCrrmNaF4zlNXmtXnYJX/OvoMaJXkGUFvhZEOFp3ArnPEELG4ZKk40Un
+ABHLGioVplTVI+tnkDB0A+21w0LOEhsUCxJkAZbZB2LzEgwLt4I4ptJIsCSDBFe
lpKU1fwg3FZs5ZKTv3ocwDfjhUkV+ivhdDkYD7fa86JXWGBPzI6UAPxGezQxPk1H
goE6y/SJXQ7vTQ1unBuCJN0yJV0ReFEQPaA1IwQvZW+cwdFD19Ae8zFnWSfda9J1
CZMRJCQUzym+5iPDuI9yP+kHyCREU3qzuWFloUwOxkgAyXVjBYdwRVKD05WdRerw
6DEdfgkfCv4+3ao8XnTSrLE=
-----END CERTIFICATE-----
Certificate:
    Data:
        Version: 3 (0x2)
        Serial Number: 33554617 (0x20000b9)
        Signature Algorithm: sha1WithRSAEncryption
        Issuer: C = IE, O = Baltimore, OU = CyberTrust, CN = Baltimore CyberTrust Root
        Validity
            Not Before: May 12 18:46:00 2000 GMT
            Not After : May 12 23:59:00 2025 GMT
        Subject: C = IE, O = Baltimore, OU = CyberTrust, CN = Baltimore CyberTrust Root
        Subject Public Key Info:
            Public Key Algorithm: rsaEncryption
                Public-Key: (2048 bit)
                Modulus:
                    00:a3:04:bb:22:ab:98:3d:57:e8:26:72:9a:b5:79:
                    d4:29:e2:e1:e8:95:80:b1:b0:e3:5b:8e:2b:29:9a:
                    64:df:a1:5d:ed:b0:09:05:6d:db:28:2e:ce:62:a2:
                    62:fe:b4:88:da:12:eb:38:eb:21:9d:c0:41:2b:01:
                    52:7b:88:77:d3:1c:8f:c7:ba:b9:88:b5:6a:09:e7:
                    73:e8:11:40:a7:d1:cc:ca:62:8d:2d:e5:8f:0b:a6:
                    50:d2:a8:50:c3:28:ea:f5:ab:25:87:8a:9a:96:1c:
                    a9:67:b8:3f:0c:d5:f7:f9:52:13:2f:c2:1b:d5:70:
                    70:f0:8f:c0:12:ca:06:cb:9a:e1:d9:ca:33:7a:77:
                    d6:f8:ec:b9:f1:68:44:42:48:13:d2:c0:c2:a4:ae:
                    5e:60:fe:b6:a6:05:fc:b4:dd:07:59:02:d4:59:18:
                    98:63:f5:a5:63:e0:90:0c:7d:5d:b2:06:7a:f3:85:
                    ea:eb:d4:03:ae:5e:84:3e:5f:ff:15:ed:69:bc:f9:
                    39:36:72:75:cf:77:52:4d:f3:c9:90:2c:b9:3d:e5:
                    c9:23:53:3f:1f:24:98:21:5c:07:99:29:bd:c6:3a:
                    ec:e7:6e:86:3a:6b:97:74:63:33:bd:68:18:31:f0:
                    78:8d:76:bf:fc:9e:8e:5d:2a:86:a7:4d:90:dc:27:
                    1a:39
                Exponent: 65537 (0x10001)
        X509v3 extensions:
            X509v3 Subject Key Identifier: 
                E5:9D:59:30:82:47:58:CC:AC:FA:08:54:36:86:7B:3A:B5:04:4D:F0
            X509v3 Basic Constraints: critical
                CA:TRUE, pathlen:3
            X509v3 Key Usage: critical
                Certificate Sign, CRL Sign
    Signature Algorithm: sha1WithRSAEncryption
    Signature Value:
        85:0c:5d:8e:e4:6f:51:68:42:05:a0:dd:bb:4f:27:25:84:03:
        bd:f7:64:fd:2d:d7:30:e3:a4:10:17:eb:da:29:29:b6:79:3f:
        76:f6:19:13:23:b8:10:0a:f9:58:a4:d4:61:70:bd:04:61:6a:
        12:8a:17:d5:0a:bd:c5:bc:30:7c:d6:e9:0c:25:8d:86:40:4f:
        ec:cc:a3:7e:38:c6:37:11:4f:ed:dd:68:31:8e:4c:d2:b3:01:
        74:ee:be:75:5e:07:48:1a:7f:70:ff:16:5c:84:c0:79:85:b8:
        05:fd:7f:be:65:11:a3:0f:c0:02:b4:f8:52:37:39:04:d5:a9:
        31:7a:18:bf:a0:2a:f4:12:99:f7:a3:45:82:e3:3c:5e:f5:9d:
        9e:b5:c8:9e:7c:2e:c8:a4:9e:4e:08:14:4b:6d:fd:70:6d:6b:
        1a:63:bd:64:e6:1f:b7:ce:f0:f2:9f:2e:bb:1b:b7:f2:50:88:
        73:92:c2:e2:e3:16:8d:9a:32:02:ab:8e:18:dd:e9:10:11:ee:
        7e:35:ab:90:af:3e:30:94:7a:d0:33:3d:a7:65:0f:f5:fc:8e:
        9e:62:cf:47:44:2c:01:5d:bb:1d:b5:32:d2:47:d2:38:2e:d0:
        fe:81:dc:32:6a:1e:b5:ee:3c:d5:fc:e7:81:1d:19:c3:24:42:
        ea:63:39:a9
-----BEGIN CERTIFICATE-----
MIIDdzCCAl+gAwIBAgIEAgAAuTANBgkqhkiG9w0BAQUFADBaMQswCQYDVQQGEwJJ
RTESMBAGA1UEChMJQmFsdGltb3JlMRMwEQYDVQQLEwpDeWJlclRydXN0MSIwIAYD
VQQDExlCYWx0aW1vcmUgQ3liZXJUcnVzdCBSb290MB4XDTAwMDUxMjE4NDYwMFoX
DTI1MDUxMjIzNTkwMFowWjELMAkGA1UEBhMCSUUxEjAQBgNVBAoTCUJhbHRpbW9y
ZTETMBEGA1UECxMKQ3liZXJUcnVzdDEiMCAGA1UEAxMZQmFsdGltb3JlIEN5YmVy
VHJ1c3QgUm9vdDCCASIwDQYJKoZIhvcNAQEBBQADggEPADCCAQoCggEBAKMEuyKr
mD1X6CZymrV51Cni4eiVgLGw41uOKymaZN+hXe2wCQVt2yguzmKiYv60iNoS6zjr
IZ3AQSsBUnuId9Mcj8e6uYi1agnnc+gRQKfRzMpijS3ljwumUNKoUMMo6vWrJYeK
mpYcqWe4PwzV9/lSEy/CG9VwcPCPwBLKBsua4dnKM3p31vjsufFoREJIE9LAwqSu
XmD+tqYF/LTdB1kC1FkYmGP1pWPgkAx9XbIGevOF6uvUA65ehD5f/xXtabz5OTZy
dc93Uk3zyZAsuT3lySNTPx8kmCFcB5kpvcY67Oduhjprl3RjM71oGDHweI12v/ye
jl0qhqdNkNwnGjkCAwEAAaNFMEMwHQYDVR0OBBYEFOWdWTCCR1jMrPoIVDaGezq1
BE3wMBIGA1UdEwEB/wQIMAYBAf8CAQMwDgYDVR0PAQH/BAQDAgEGMA0GCSqGSIb3
DQEBBQUAA4IBAQCFDF2O5G9RaEIFoN27TyclhAO992T9Ldcw46QQF+vaKSm2eT92
9hkTI7gQCvlYpNRhcL0EYWoSihfVCr3FvDB81ukMJY2GQE/szKN+OMY3EU/t3Wgx
jkzSswF07r51XgdIGn9w/xZchMB5hbgF/X++ZRGjD8ACtPhSNzkE1akxehi/oCr0
Epn3o0WC4zxe9Z2etciefC7IpJ5OCBRLbf1wbWsaY71k5h+3zvDyny67G7fyUIhz
ksLi4xaNmjICq44Y3ekQEe5+NauQrz4wlHrQMz2nZQ/1/I6eYs9HRCwBXbsdtTLS
R9I4LtD+gdwyah617jzV/OeBHRnDJELqYzmp
-----END CERTIFICATE-----
