Certificate:
    Data:
        Version: 3 (0x2)
        Serial Number:
            07:f2:f3:5c:87:a8:77:af:7a:ef:e9:47:99:35:25:bd
        Signature Algorithm: sha384WithRSAEncryption
        Issuer: C = US, O = DigiCert Inc, OU = www.digicert.com, CN = DigiCert Global Root CA
        Validity
            Not Before: Apr 14 00:00:00 2021 GMT
            Not After : Apr 13 23:59:59 2031 GMT
        Subject: C = US, O = DigiCert Inc, CN = DigiCert TLS Hybrid ECC SHA384 2020 CA1
        Subject Public Key Info:
            Public Key Algorithm: id-ecPublicKey
                Public-Key: (384 bit)
                pub:
                    04:c1:1b:c6:9a:5b:98:d9:a4:29:a0:e9:d4:04:b5:
                    db:eb:a6:b2:6c:55:c0:ff:ed:98:c6:49:2f:06:27:
                    51:cb:bf:70:c1:05:7a:c3:b1:9d:87:89:ba:ad:b4:
                    13:17:c9:a8:b4:83:c8:b8:90:d1:cc:74:35:36:3c:
                    83:72:b0:b5:d0:f7:22:69:c8:f1:80:c4:7b:40:8f:
                    cf:68:87:26:5c:39:89:f1:4d:91:4d:da:89:8b:e4:
                    03:c3:43:e5:bf:2f:73
                ASN1 OID: secp384r1
                NIST CURVE: P-384
        X509v3 extensions:
            X509v3 Basic Constraints: critical
                CA:TRUE, pathlen:0
            X509v3 Subject Key Identifier: 
                0A:BC:08:29:17:8C:A5:39:6D:7A:0E:CE:33:C7:2E:B3:ED:FB:C3:7A
            X509v3 Authority Key Identifier: 
                keyid:03:DE:50:35:56:D1:4C:BB:66:F0:A3:E2:1B:1B:C3:97:B2:3D:D1:55

            X509v3 Key Usage: critical
                Digital Signature, Certificate Sign, CRL Sign
            X509v3 Extended Key Usage: 
                TLS Web Server Authentication, TLS Web Client Authentication
            Authority Information Access: 
                OCSP - URI:http://ocsp.digicert.com
                CA Issuers - URI:http://cacerts.digicert.com/DigiCertGlobalRootCA.crt

            X509v3 CRL Distribution Points: 

                Full Name:
                  URI:http://crl3.digicert.com/DigiCertGlobalRootCA.crl

            X509v3 Certificate Policies: 
                Policy: 2.16.840.1.114412.2.1
                Policy: 2.23.140.1.1
                Policy: 2.23.140.1.2.1
                Policy: 2.23.140.1.2.2
                Policy: 2.23.140.1.2.3

    Signature Algorithm: sha384WithRSAEncryption
         47:59:81:7f:d4:1b:1f:b0:71:f6:98:5d:18:ba:98:47:98:b0:
         7e:76:2b:ea:ff:1a:8b:ac:26:b3:42:8d:31:e6:4a:e8:19:d0:
         ef:da:14:e7:d7:14:92:a1:92:f2:a7:2e:2d:af:fb:1d:f6:fb:
         53:b0:8a:3f:fc:d8:16:0a:e9:b0:2e:b6:a5:0b:18:90:35:26:
         a2:da:f6:a8:b7:32:fc:95:23:4b:c6:45:b9:c4:cf:e4:7c:ee:
         e6:c9:f8:90:bd:72:e3:99:c3:1d:0b:05:7c:6a:97:6d:b2:ab:
         02:36:d8:c2:bc:2c:01:92:3f:04:a3:8b:75:11:c7:b9:29:bc:
         11:d0:86:ba:92:bc:26:f9:65:c8:37:cd:26:f6:86:13:0c:04:
         aa:89:e5:78:b1:c1:4e:79:bc:76:a3:0b:51:e4:c5:d0:9e:6a:
         fe:1a:2c:56:ae:06:36:27:a3:73:1c:08:7d:93:32:d0:c2:44:
         19:da:8d:f4:0e:7b:1d:28:03:2b:09:8a:76:ca:77:dc:87:7a:
         ac:7b:52:26:55:a7:72:0f:9d:d2:88:4f:fe:b1:21:c5:1a:a1:
         aa:39:f5:56:db:c2:84:c4:35:1f:70:da:bb:46:f0:86:bf:64:
         00:c4:3e:f7:9f:46:1b:9d:23:05:b9:7d:b3:4f:0f:a9:45:3a:
         e3:74:30:98
-----BEGIN CERTIFICATE-----
MIIEFzCCAv+gAwIBAgIQB/LzXIeod6967+lHmTUlvTANBgkqhkiG9w0BAQwFADBh
MQswCQYDVQQGEwJVUzEVMBMGA1UEChMMRGlnaUNlcnQgSW5jMRkwFwYDVQQLExB3
d3cuZGlnaWNlcnQuY29tMSAwHgYDVQQDExdEaWdpQ2VydCBHbG9iYWwgUm9vdCBD
QTAeFw0yMTA0MTQwMDAwMDBaFw0zMTA0MTMyMzU5NTlaMFYxCzAJBgNVBAYTAlVT
MRUwEwYDVQQKEwxEaWdpQ2VydCBJbmMxMDAuBgNVBAMTJ0RpZ2lDZXJ0IFRMUyBI
eWJyaWQgRUNDIFNIQTM4NCAyMDIwIENBMTB2MBAGByqGSM49AgEGBSuBBAAiA2IA
BMEbxppbmNmkKaDp1AS12+umsmxVwP/tmMZJLwYnUcu/cMEFesOxnYeJuq20ExfJ
qLSDyLiQ0cx0NTY8g3KwtdD3ImnI8YDEe0CPz2iHJlw5ifFNkU3aiYvkA8ND5b8v
c6OCAYIwggF+MBIGA1UdEwEB/wQIMAYBAf8CAQAwHQYDVR0OBBYEFAq8CCkXjKU5
bXoOzjPHLrPt+8N6MB8GA1UdIwQYMBaAFAPeUDVW0Uy7ZvCj4hsbw5eyPdFVMA4G
A1UdDwEB/wQEAwIBhjAdBgNVHSUEFjAUBggrBgEFBQcDAQYIKwYBBQUHAwIwdgYI
KwYBBQUHAQEEajBoMCQGCCsGAQUFBzABhhhodHRwOi8vb2NzcC5kaWdpY2VydC5j
b20wQAYIKwYBBQUHMAKGNGh0dHA6Ly9jYWNlcnRzLmRpZ2ljZXJ0LmNvbS9EaWdp
Q2VydEdsb2JhbFJvb3RDQS5jcnQwQgYDVR0fBDswOTA3oDWgM4YxaHR0cDovL2Ny
bDMuZGlnaWNlcnQuY29tL0RpZ2lDZXJ0R2xvYmFsUm9vdENBLmNybDA9BgNVHSAE
NjA0MAsGCWCGSAGG/WwCATAHBgVngQwBATAIBgZngQwBAgEwCAYGZ4EMAQICMAgG
BmeBDAECAzANBgkqhkiG9w0BAQwFAAOCAQEAR1mBf9QbH7Bx9phdGLqYR5iwfnYr
6v8ai6wms0KNMeZK6BnQ79oU59cUkqGS8qcuLa/7Hfb7U7CKP/zYFgrpsC62pQsY
kDUmotr2qLcy/JUjS8ZFucTP5Hzu5sn4kL1y45nDHQsFfGqXbbKrAjbYwrwsAZI/
BKOLdRHHuSm8EdCGupK8JvllyDfNJvaGEwwEqonleLHBTnm8dqMLUeTF0J5q/hos
Vq4GNiejcxwIfZMy0MJEGdqN9A57HSgDKwmKdsp33Id6rHtSJlWncg+d0ohP/rEh
xRqhqjn1VtvChMQ1H3Dau0bwhr9kAMQ+959GG50jBbl9s08PqUU643QwmA==
-----END CERTIFICATE-----
Certificate:
    Data:
        Version: 3 (0x2)
        Serial Number:
            08:3b:e0:56:90:42:46:b1:a1:75:6a:c9:59:91:c7:4a
        Signature Algorithm: sha1WithRSAEncryption
        Issuer: C = US, O = DigiCert Inc, OU = www.digicert.com, CN = DigiCert Global Root CA
        Validity
            Not Before: Nov 10 00:00:00 2006 GMT
            Not After : Nov 10 00:00:00 2031 GMT
        Subject: C = US, O = DigiCert Inc, OU = www.digicert.com, CN = DigiCert Global Root CA
        Subject Public Key Info:
            Public Key Algorithm: rsaEncryption
                RSA Public-Key: (2048 bit)
                Modulus:
                    00:e2:3b:e1:11:72:de:a8:a4:d3:a3:57:aa:50:a2:
                    8f:0b:77:90:c9:a2:a5:ee:12:ce:96:5b:01:09:20:
                    cc:01:93:a7:4e:30:b7:53:f7:43:c4:69:00:57:9d:
                    e2:8d:22:dd:87:06:40:00:81:09:ce:ce:1b:83:bf:
                    df:cd:3b:71:46:e2:d6:66:c7:05:b3:76:27:16:8f:
                    7b:9e:1e:95:7d:ee:b7:48:a3:08:da:d6:af:7a:0c:
                    39:06:65:7f:4a:5d:1f:bc:17:f8:ab:be:ee:28:d7:
                    74:7f:7a:78:99:59:85:68:6e:5c:23:32:4b:bf:4e:
                    c0:e8:5a:6d:e3:70:bf:77:10:bf:fc:01:f6:85:d9:
                    a8:44:10:58:32:a9:75:18:d5:d1:a2:be:47:e2:27:
                    6a:f4:9a:33:f8:49:08:60:8b:d4:5f:b4:3a:84:bf:
                    a1:aa:4a:4c:7d:3e:cf:4f:5f:6c:76:5e:a0:4b:37:
                    91:9e:dc:22:e6:6d:ce:14:1a:8e:6a:cb:fe:cd:b3:
                    14:64:17:c7:5b:29:9e:32:bf:f2:ee:fa:d3:0b:42:
                    d4:ab:b7:41:32:da:0c:d4:ef:f8:81:d5:bb:8d:58:
                    3f:b5:1b:e8:49:28:a2:70:da:31:04:dd:f7:b2:16:
                    f2:4c:0a:4e:07:a8:ed:4a:3d:5e:b5:7f:a3:90:c3:
                    af:27
                Exponent: 65537 (0x10001)
        X509v3 extensions:
            X509v3 Key Usage: critical
                Digital Signature, Certificate Sign, CRL Sign
            X509v3 Basic Constraints: critical
                CA:TRUE
            X509v3 Subject Key Identifier: 
                03:DE:50:35:56:D1:4C:BB:66:F0:A3:E2:1B:1B:C3:97:B2:3D:D1:55
            X509v3 Authority Key Identifier: 
                keyid:03:DE:50:35:56:D1:4C:BB:66:F0:A3:E2:1B:1B:C3:97:B2:3D:D1:55

    Signature Algorithm: sha1WithRSAEncryption
         cb:9c:37:aa:48:13:12:0a:fa:dd:44:9c:4f:52:b0:f4:df:ae:
         04:f5:79:79:08:a3:24:18:fc:4b:2b:84:c0:2d:b9:d5:c7:fe:
         f4:c1:1f:58:cb:b8:6d:9c:7a:74:e7:98:29:ab:11:b5:e3:70:
         a0:a1:cd:4c:88:99:93:8c:91:70:e2:ab:0f:1c:be:93:a9:ff:
         63:d5:e4:07:60:d3:a3:bf:9d:5b:09:f1:d5:8e:e3:53:f4:8e:
         63:fa:3f:a7:db:b4:66:df:62:66:d6:d1:6e:41:8d:f2:2d:b5:
         ea:77:4a:9f:9d:58:e2:2b:59:c0:40:23:ed:2d:28:82:45:3e:
         79:54:92:26:98:e0:80:48:a8:37:ef:f0:d6:79:60:16:de:ac:
         e8:0e:cd:6e:ac:44:17:38:2f:49:da:e1:45:3e:2a:b9:36:53:
         cf:3a:50:06:f7:2e:e8:c4:57:49:6c:61:21:18:d5:04:ad:78:
         3c:2c:3a:80:6b:a7:eb:af:15:14:e9:d8:89:c1:b9:38:6c:e2:
         91:6c:8a:ff:64:b9:77:25:57:30:c0:1b:24:a3:e1:dc:e9:df:
         47:7c:b5:b4:24:08:05:30:ec:2d:bd:0b:bf:45:bf:50:b9:a9:
         f3:eb:98:01:12:ad:c8:88:c6:98:34:5f:8d:0a:3c:c6:e9:d5:
         95:95:6d:de
-----BEGIN CERTIFICATE-----
MIIDrzCCApegAwIBAgIQCDvgVpBCRrGhdWrJWZHHSjANBgkqhkiG9w0BAQUFADBh
MQswCQYDVQQGEwJVUzEVMBMGA1UEChMMRGlnaUNlcnQgSW5jMRkwFwYDVQQLExB3
d3cuZGlnaWNlcnQuY29tMSAwHgYDVQQDExdEaWdpQ2VydCBHbG9iYWwgUm9vdCBD
QTAeFw0wNjExMTAwMDAwMDBaFw0zMTExMTAwMDAwMDBaMGExCzAJBgNVBAYTAlVT
MRUwEwYDVQQKEwxEaWdpQ2VydCBJbmMxGTAXBgNVBAsTEHd3dy5kaWdpY2VydC5j
b20xIDAeBgNVBAMTF0RpZ2lDZXJ0IEdsb2JhbCBSb290IENBMIIBIjANBgkqhkiG
9w0BAQEFAAOCAQ8AMIIBCgKCAQEA4jvhEXLeqKTTo1eqUKKPC3eQyaKl7hLOllsB
CSDMAZOnTjC3U/dDxGkAV53ijSLdhwZAAIEJzs4bg7/fzTtxRuLWZscFs3YnFo97
nh6Vfe63SKMI2tavegw5BmV/Sl0fvBf4q77uKNd0f3p4mVmFaG5cIzJLv07A6Fpt
43C/dxC//AH2hdmoRBBYMql1GNXRor5H4idq9Joz+EkIYIvUX7Q6hL+hqkpMfT7P
T19sdl6gSzeRntwi5m3OFBqOasv+zbMUZBfHWymeMr/y7vrTC0LUq7dBMtoM1O/4
gdW7jVg/tRvoSSiicNoxBN33shbyTApOB6jtSj1etX+jkMOvJwIDAQABo2MwYTAO
BgNVHQ8BAf8EBAMCAYYwDwYDVR0TAQH/BAUwAwEB/zAdBgNVHQ4EFgQUA95QNVbR
TLtm8KPiGxvDl7I90VUwHwYDVR0jBBgwFoAUA95QNVbRTLtm8KPiGxvDl7I90VUw
DQYJKoZIhvcNAQEFBQADggEBAMucN6pIExIK+t1EnE9SsPTfrgT1eXkIoyQY/Esr
hMAtudXH/vTBH1jLuG2cenTnmCmrEbXjcKChzUyImZOMkXDiqw8cvpOp/2PV5Adg
06O/nVsJ8dWO41P0jmP6P6fbtGbfYmbW0W5BjfIttep3Sp+dWOIrWcBAI+0tKIJF
PnlUkiaY4IBIqDfv8NZ5YBberOgOzW6sRBc4L0na4UU+Krk2U886UAb3LujEV0ls
YSEY1QSteDwsOoBrp+uvFRTp2InBuThs4pFsiv9kuXclVzDAGySj4dzp30d8tbQk
CAUw7C29C79Fv1C5qfPrmAESrciIxpg0X40KPMbp1ZWVbd4=
-----END CERTIFICATE-----
