Certificate:
    Data:
        Version: 3 (0x2)
        Serial Number:
            0a:cb:28:ba:46:5e:e5:39:08:76:74:70:f3:cd:c6:12
        Signature Algorithm: sha384WithRSAEncryption
        Issuer: C = US, O = DigiCert Inc, OU = www.digicert.com, CN = DigiCert Global Root CA
        Validity
            Not Before: Mar  8 12:00:00 2013 GMT
            Not After : Mar  8 12:00:00 2023 GMT
        Subject: C = US, O = DigiCert Inc, CN = DigiCert ECC Secure Server CA
        Subject Public Key Info:
            Public Key Algorithm: id-ecPublicKey
                Public-Key: (384 bit)
                pub:
                    04:e2:08:42:ea:77:d8:24:de:a0:2c:64:a4:13:ce:
                    40:9c:23:72:a9:02:0a:0e:37:3f:21:36:b8:8d:53:
                    14:f6:d5:91:95:4b:f3:96:02:8d:71:1e:c4:d8:cb:
                    a7:9f:5e:ef:a0:e6:7f:5a:92:11:96:53:6f:eb:c0:
                    cb:3f:ae:fd:5b:3f:47:24:e7:9a:07:2e:96:be:a8:
                    2f:bb:57:18:af:71:a4:bd:78:3a:1e:e8:5b:3c:6b:
                    64:11:2b:cc:34:2b:8c
                ASN1 OID: secp384r1
                NIST CURVE: P-384
        X509v3 extensions:
            X509v3 Basic Constraints: critical
                CA:TRUE, pathlen:0
            X509v3 Key Usage: critical
                Digital Signature, Certificate Sign, CRL Sign
            Authority Information Access: 
                OCSP - URI:http://ocsp.digicert.com

            X509v3 CRL Distribution Points: 

                Full Name:
                  URI:http://crl3.digicert.com/DigiCertGlobalRootCA.crl

            X509v3 Certificate Policies: 
                Policy: X509v3 Any Policy
                  CPS: https://www.digicert.com/CPS

            X509v3 Subject Key Identifier: 
                A3:9D:E6:1F:F9:DA:39:4F:C0:6E:E8:91:CB:95:A5:DA:31:E2:0A:9F
            X509v3 Authority Key Identifier: 
                keyid:03:DE:50:35:56:D1:4C:BB:66:F0:A3:E2:1B:1B:C3:97:B2:3D:D1:55

    Signature Algorithm: sha384WithRSAEncryption
         c7:8a:a0:43:4b:ec:74:c9:c5:ab:d5:1f:30:35:36:6e:98:56:
         7b:48:ac:05:63:ae:7b:9a:57:24:57:cc:6f:fa:de:ab:6d:9c:
         c7:b6:ba:ec:ce:e7:ca:73:64:db:df:04:37:0a:00:49:b3:3f:
         9f:26:ad:91:8c:20:e8:1f:88:0e:2a:fb:66:37:c8:30:e8:d2:
         c2:24:a7:45:48:2d:ea:01:50:4a:31:94:13:df:8d:5f:da:2a:
         bb:49:3c:61:f3:79:c8:9c:66:92:1a:96:2a:f4:7b:36:58:a3:
         2c:41:10:74:1a:d3:ed:48:b6:d2:bb:8a:06:45:71:33:10:30:
         7a:7a:98:21:dd:24:b9:ec:9c:b5:92:07:ad:83:c6:c4:6a:f8:
         77:e6:35:be:13:0f:27:64:b2:43:bf:83:e9:77:56:db:08:87:
         94:47:14:f5:5f:28:af:a3:68:4c:83:8f:60:f7:96:80:79:85:
         6a:76:26:9d:95:0c:20:03:8d:3e:ee:7a:28:65:64:66:a4:d9:
         83:ea:99:74:cd:6e:4d:7d:1c:eb:8d:b2:c5:af:16:1b:4e:c8:
         f3:55:ea:88:38:11:34:1d:11:af:3f:07:a8:4f:6a:d2:74:11:
         2f:2a:fc:73:b7:5f:c2:15:43:05:6c:d6:7d:da:02:bd:22:9b:
         4f:d3:f9:77
-----BEGIN CERTIFICATE-----
MIIDrDCCApSgAwIBAgIQCssoukZe5TkIdnRw883GEjANBgkqhkiG9w0BAQwFADBh
MQswCQYDVQQGEwJVUzEVMBMGA1UEChMMRGlnaUNlcnQgSW5jMRkwFwYDVQQLExB3
d3cuZGlnaWNlcnQuY29tMSAwHgYDVQQDExdEaWdpQ2VydCBHbG9iYWwgUm9vdCBD
QTAeFw0xMzAzMDgxMjAwMDBaFw0yMzAzMDgxMjAwMDBaMEwxCzAJBgNVBAYTAlVT
MRUwEwYDVQQKEwxEaWdpQ2VydCBJbmMxJjAkBgNVBAMTHURpZ2lDZXJ0IEVDQyBT
ZWN1cmUgU2VydmVyIENBMHYwEAYHKoZIzj0CAQYFK4EEACIDYgAE4ghC6nfYJN6g
LGSkE85AnCNyqQIKDjc/ITa4jVMU9tWRlUvzlgKNcR7E2Munn17voOZ/WpIRllNv
68DLP679Wz9HJOeaBy6Wvqgvu1cYr3GkvXg6HuhbPGtkESvMNCuMo4IBITCCAR0w
EgYDVR0TAQH/BAgwBgEB/wIBADAOBgNVHQ8BAf8EBAMCAYYwNAYIKwYBBQUHAQEE
KDAmMCQGCCsGAQUFBzABhhhodHRwOi8vb2NzcC5kaWdpY2VydC5jb20wQgYDVR0f
BDswOTA3oDWgM4YxaHR0cDovL2NybDMuZGlnaWNlcnQuY29tL0RpZ2lDZXJ0R2xv
YmFsUm9vdENBLmNybDA9BgNVHSAENjA0MDIGBFUdIAAwKjAoBggrBgEFBQcCARYc
aHR0cHM6Ly93d3cuZGlnaWNlcnQuY29tL0NQUzAdBgNVHQ4EFgQUo53mH/naOU/A
buiRy5Wl2jHiCp8wHwYDVR0jBBgwFoAUA95QNVbRTLtm8KPiGxvDl7I90VUwDQYJ
KoZIhvcNAQEMBQADggEBAMeKoENL7HTJxavVHzA1Nm6YVntIrAVjrnuaVyRXzG/6
3qttnMe2uuzO58pzZNvfBDcKAEmzP58mrZGMIOgfiA4q+2Y3yDDo0sIkp0VILeoB
UEoxlBPfjV/aKrtJPGHzecicZpIalir0ezZYoyxBEHQa0+1IttK7igZFcTMQMHp6
mCHdJLnsnLWSB62DxsRq+HfmNb4TDydkskO/g+l3VtsIh5RHFPVfKK+jaEyDj2D3
loB5hWp2Jp2VDCADjT7ueihlZGak2YPqmXTNbk19HOuNssWvFhtOyPNV6og4ETQd
Ea8/B6hPatJ0ES8q/HO3X8IVQwVs1n3aAr0im0/T+Xc=
-----END CERTIFICATE-----
Certificate:
    Data:
        Version: 3 (0x2)
        Serial Number:
            08:3b:e0:56:90:42:46:b1:a1:75:6a:c9:59:91:c7:4a
        Signature Algorithm: sha1WithRSAEncryption
        Issuer: C = US, O = DigiCert Inc, OU = www.digicert.com, CN = DigiCert Global Root CA
        Validity
            Not Before: Nov 10 00:00:00 2006 GMT
            Not After : Nov 10 00:00:00 2031 GMT
        Subject: C = US, O = DigiCert Inc, OU = www.digicert.com, CN = DigiCert Global Root CA
        Subject Public Key Info:
            Public Key Algorithm: rsaEncryption
                RSA Public-Key: (2048 bit)
                Modulus:
                    00:e2:3b:e1:11:72:de:a8:a4:d3:a3:57:aa:50:a2:
                    8f:0b:77:90:c9:a2:a5:ee:12:ce:96:5b:01:09:20:
                    cc:01:93:a7:4e:30:b7:53:f7:43:c4:69:00:57:9d:
                    e2:8d:22:dd:87:06:40:00:81:09:ce:ce:1b:83:bf:
                    df:cd:3b:71:46:e2:d6:66:c7:05:b3:76:27:16:8f:
                    7b:9e:1e:95:7d:ee:b7:48:a3:08:da:d6:af:7a:0c:
                    39:06:65:7f:4a:5d:1f:bc:17:f8:ab:be:ee:28:d7:
                    74:7f:7a:78:99:59:85:68:6e:5c:23:32:4b:bf:4e:
                    c0:e8:5a:6d:e3:70:bf:77:10:bf:fc:01:f6:85:d9:
                    a8:44:10:58:32:a9:75:18:d5:d1:a2:be:47:e2:27:
                    6a:f4:9a:33:f8:49:08:60:8b:d4:5f:b4:3a:84:bf:
                    a1:aa:4a:4c:7d:3e:cf:4f:5f:6c:76:5e:a0:4b:37:
                    91:9e:dc:22:e6:6d:ce:14:1a:8e:6a:cb:fe:cd:b3:
                    14:64:17:c7:5b:29:9e:32:bf:f2:ee:fa:d3:0b:42:
                    d4:ab:b7:41:32:da:0c:d4:ef:f8:81:d5:bb:8d:58:
                    3f:b5:1b:e8:49:28:a2:70:da:31:04:dd:f7:b2:16:
                    f2:4c:0a:4e:07:a8:ed:4a:3d:5e:b5:7f:a3:90:c3:
                    af:27
                Exponent: 65537 (0x10001)
        X509v3 extensions:
            X509v3 Key Usage: critical
                Digital Signature, Certificate Sign, CRL Sign
            X509v3 Basic Constraints: critical
                CA:TRUE
            X509v3 Subject Key Identifier: 
                03:DE:50:35:56:D1:4C:BB:66:F0:A3:E2:1B:1B:C3:97:B2:3D:D1:55
            X509v3 Authority Key Identifier: 
                keyid:03:DE:50:35:56:D1:4C:BB:66:F0:A3:E2:1B:1B:C3:97:B2:3D:D1:55

    Signature Algorithm: sha1WithRSAEncryption
         cb:9c:37:aa:48:13:12:0a:fa:dd:44:9c:4f:52:b0:f4:df:ae:
         04:f5:79:79:08:a3:24:18:fc:4b:2b:84:c0:2d:b9:d5:c7:fe:
         f4:c1:1f:58:cb:b8:6d:9c:7a:74:e7:98:29:ab:11:b5:e3:70:
         a0:a1:cd:4c:88:99:93:8c:91:70:e2:ab:0f:1c:be:93:a9:ff:
         63:d5:e4:07:60:d3:a3:bf:9d:5b:09:f1:d5:8e:e3:53:f4:8e:
         63:fa:3f:a7:db:b4:66:df:62:66:d6:d1:6e:41:8d:f2:2d:b5:
         ea:77:4a:9f:9d:58:e2:2b:59:c0:40:23:ed:2d:28:82:45:3e:
         79:54:92:26:98:e0:80:48:a8:37:ef:f0:d6:79:60:16:de:ac:
         e8:0e:cd:6e:ac:44:17:38:2f:49:da:e1:45:3e:2a:b9:36:53:
         cf:3a:50:06:f7:2e:e8:c4:57:49:6c:61:21:18:d5:04:ad:78:
         3c:2c:3a:80:6b:a7:eb:af:15:14:e9:d8:89:c1:b9:38:6c:e2:
         91:6c:8a:ff:64:b9:77:25:57:30:c0:1b:24:a3:e1:dc:e9:df:
         47:7c:b5:b4:24:08:05:30:ec:2d:bd:0b:bf:45:bf:50:b9:a9:
         f3:eb:98:01:12:ad:c8:88:c6:98:34:5f:8d:0a:3c:c6:e9:d5:
         95:95:6d:de
-----BEGIN CERTIFICATE-----
MIIDrzCCApegAwIBAgIQCDvgVpBCRrGhdWrJWZHHSjANBgkqhkiG9w0BAQUFADBh
MQswCQYDVQQGEwJVUzEVMBMGA1UEChMMRGlnaUNlcnQgSW5jMRkwFwYDVQQLExB3
d3cuZGlnaWNlcnQuY29tMSAwHgYDVQQDExdEaWdpQ2VydCBHbG9iYWwgUm9vdCBD
QTAeFw0wNjExMTAwMDAwMDBaFw0zMTExMTAwMDAwMDBaMGExCzAJBgNVBAYTAlVT
MRUwEwYDVQQKEwxEaWdpQ2VydCBJbmMxGTAXBgNVBAsTEHd3dy5kaWdpY2VydC5j
b20xIDAeBgNVBAMTF0RpZ2lDZXJ0IEdsb2JhbCBSb290IENBMIIBIjANBgkqhkiG
9w0BAQEFAAOCAQ8AMIIBCgKCAQEA4jvhEXLeqKTTo1eqUKKPC3eQyaKl7hLOllsB
CSDMAZOnTjC3U/dDxGkAV53ijSLdhwZAAIEJzs4bg7/fzTtxRuLWZscFs3YnFo97
nh6Vfe63SKMI2tavegw5BmV/Sl0fvBf4q77uKNd0f3p4mVmFaG5cIzJLv07A6Fpt
43C/dxC//AH2hdmoRBBYMql1GNXRor5H4idq9Joz+EkIYIvUX7Q6hL+hqkpMfT7P
T19sdl6gSzeRntwi5m3OFBqOasv+zbMUZBfHWymeMr/y7vrTC0LUq7dBMtoM1O/4
gdW7jVg/tRvoSSiicNoxBN33shbyTApOB6jtSj1etX+jkMOvJwIDAQABo2MwYTAO
BgNVHQ8BAf8EBAMCAYYwDwYDVR0TAQH/BAUwAwEB/zAdBgNVHQ4EFgQUA95QNVbR
TLtm8KPiGxvDl7I90VUwHwYDVR0jBBgwFoAUA95QNVbRTLtm8KPiGxvDl7I90VUw
DQYJKoZIhvcNAQEFBQADggEBAMucN6pIExIK+t1EnE9SsPTfrgT1eXkIoyQY/Esr
hMAtudXH/vTBH1jLuG2cenTnmCmrEbXjcKChzUyImZOMkXDiqw8cvpOp/2PV5Adg
06O/nVsJ8dWO41P0jmP6P6fbtGbfYmbW0W5BjfIttep3Sp+dWOIrWcBAI+0tKIJF
PnlUkiaY4IBIqDfv8NZ5YBberOgOzW6sRBc4L0na4UU+Krk2U886UAb3LujEV0ls
YSEY1QSteDwsOoBrp+uvFRTp2InBuThs4pFsiv9kuXclVzDAGySj4dzp30d8tbQk
CAUw7C29C79Fv1C5qfPrmAESrciIxpg0X40KPMbp1ZWVbd4=
-----END CERTIFICATE-----
