Certificate:
    Data:
        Version: 3 (0x2)
        Serial Number:
            b3:bd:df:f8:a7:84:5b:bc:e9:03:a0:41:35:b3:4a:45
        Signature Algorithm: ecdsa-with-SHA384
        Issuer: C = US, O = Internet Security Research Group, CN = ISRG Root X2
        Validity
            Not Before: Sep  4 00:00:00 2020 GMT
            Not After : Sep 15 16:00:00 2025 GMT
        Subject: C = US, O = Let's Encrypt, CN = E1
        Subject Public Key Info:
            Public Key Algorithm: id-ecPublicKey
                Public-Key: (384 bit)
                pub:
                    04:24:5c:2d:a2:2a:fd:1c:4b:a6:5d:97:73:27:31:
                    ac:b2:a0:69:62:ef:65:e8:a6:b0:f0:ac:4b:9f:ff:
                    1c:0b:70:0f:d3:98:2f:4d:fc:0f:00:9b:37:f0:74:
                    05:57:32:97:2e:05:ef:2a:43:25:a3:fb:6e:34:27:
                    13:f6:4f:7e:69:d3:02:99:5e:eb:24:47:92:c1:24:
                    9b:e6:b1:21:8f:c1:24:81:fc:68:cc:1f:69:ba:58:
                    f5:19:22:f7:74:c6:16
                ASN1 OID: secp384r1
                NIST CURVE: P-384
        X509v3 extensions:
            X509v3 Key Usage: critical
                Digital Signature, Certificate Sign, CRL Sign
            X509v3 Extended Key Usage: 
                TLS Web Client Authentication, TLS Web Server Authentication
            X509v3 Basic Constraints: critical
                CA:TRUE, pathlen:0
            X509v3 Subject Key Identifier: 
                5A:F3:ED:2B:FC:36:C2:37:79:B9:52:30:EA:54:6F:CF:55:CB:2E:AC
            X509v3 Authority Key Identifier: 
                keyid:7C:42:96:AE:DE:4B:48:3B:FA:92:F8:9E:8C:CF:6D:8B:A9:72:37:95

            Authority Information Access: 
                CA Issuers - URI:http://x2.i.lencr.org/

            X509v3 CRL Distribution Points: 

                Full Name:
                  URI:http://x2.c.lencr.org/

            X509v3 Certificate Policies: 
                Policy: 2.23.140.1.2.1
                Policy: 1.3.6.1.4.1.44947.1.1.1

    Signature Algorithm: ecdsa-with-SHA384
         30:64:02:30:7b:74:d5:52:13:8d:61:fe:0d:ba:3f:03:00:9d:
         f3:d7:98:84:d9:57:2e:bd:e9:0f:9c:5c:48:04:21:f2:cb:b3:
         60:72:8e:97:d6:12:4f:ca:44:f6:42:c9:d3:7b:86:a9:02:30:
         5a:b1:b1:b4:ed:ea:60:99:20:b1:38:03:ca:3d:a0:26:b8:ee:
         6e:2d:4a:f6:c6:66:1f:33:9a:db:92:4a:d5:f5:29:13:c6:70:
         62:28:ba:23:8c:cf:3d:2f:cb:82:e9:7f
-----BEGIN CERTIFICATE-----
MIICxjCCAk2gAwIBAgIRALO93/inhFu86QOgQTWzSkUwCgYIKoZIzj0EAwMwTzEL
MAkGA1UEBhMCVVMxKTAnBgNVBAoTIEludGVybmV0IFNlY3VyaXR5IFJlc2VhcmNo
IEdyb3VwMRUwEwYDVQQDEwxJU1JHIFJvb3QgWDIwHhcNMjAwOTA0MDAwMDAwWhcN
MjUwOTE1MTYwMDAwWjAyMQswCQYDVQQGEwJVUzEWMBQGA1UEChMNTGV0J3MgRW5j
cnlwdDELMAkGA1UEAxMCRTEwdjAQBgcqhkjOPQIBBgUrgQQAIgNiAAQkXC2iKv0c
S6Zdl3MnMayyoGli72XoprDwrEuf/xwLcA/TmC9N/A8AmzfwdAVXMpcuBe8qQyWj
+240JxP2T35p0wKZXuskR5LBJJvmsSGPwSSB/GjMH2m6WPUZIvd0xhajggEIMIIB
BDAOBgNVHQ8BAf8EBAMCAYYwHQYDVR0lBBYwFAYIKwYBBQUHAwIGCCsGAQUFBwMB
MBIGA1UdEwEB/wQIMAYBAf8CAQAwHQYDVR0OBBYEFFrz7Sv8NsI3eblSMOpUb89V
yy6sMB8GA1UdIwQYMBaAFHxClq7eS0g7+pL4nozPbYupcjeVMDIGCCsGAQUFBwEB
BCYwJDAiBggrBgEFBQcwAoYWaHR0cDovL3gyLmkubGVuY3Iub3JnLzAnBgNVHR8E
IDAeMBygGqAYhhZodHRwOi8veDIuYy5sZW5jci5vcmcvMCIGA1UdIAQbMBkwCAYG
Z4EMAQIBMA0GCysGAQQBgt8TAQEBMAoGCCqGSM49BAMDA2cAMGQCMHt01VITjWH+
Dbo/AwCd89eYhNlXLr3pD5xcSAQh8suzYHKOl9YST8pE9kLJ03uGqQIwWrGxtO3q
YJkgsTgDyj2gJrjubi1K9sZmHzOa25JK1fUpE8ZwYii6I4zPPS/Lgul/
-----END CERTIFICATE-----
Certificate:
    Data:
        Version: 3 (0x2)
        Serial Number:
            41:d2:9d:d1:72:ea:ee:a7:80:c1:2c:6c:e9:2f:87:52
        Signature Algorithm: ecdsa-with-SHA384
        Issuer: C = US, O = Internet Security Research Group, CN = ISRG Root X2
        Validity
            Not Before: Sep  4 00:00:00 2020 GMT
            Not After : Sep 17 16:00:00 2040 GMT
        Subject: C = US, O = Internet Security Research Group, CN = ISRG Root X2
        Subject Public Key Info:
            Public Key Algorithm: id-ecPublicKey
                Public-Key: (384 bit)
                pub:
                    04:cd:9b:d5:9f:80:83:0a:ec:09:4a:f3:16:4a:3e:
                    5c:cf:77:ac:de:67:05:0d:1d:07:b6:dc:16:fb:5a:
                    8b:14:db:e2:71:60:c4:ba:45:95:11:89:8e:ea:06:
                    df:f7:2a:16:1c:a4:b9:c5:c5:32:e0:03:e0:1e:82:
                    18:38:8b:d7:45:d8:0a:6a:6e:e6:00:77:fb:02:51:
                    7d:22:d8:0a:6e:9a:5b:77:df:f0:fa:41:ec:39:dc:
                    75:ca:68:07:0c:1f:ea
                ASN1 OID: secp384r1
                NIST CURVE: P-384
        X509v3 extensions:
            X509v3 Key Usage: critical
                Certificate Sign, CRL Sign
            X509v3 Basic Constraints: critical
                CA:TRUE
            X509v3 Subject Key Identifier: 
                7C:42:96:AE:DE:4B:48:3B:FA:92:F8:9E:8C:CF:6D:8B:A9:72:37:95
    Signature Algorithm: ecdsa-with-SHA384
         30:65:02:30:7b:79:4e:46:50:84:c2:44:87:46:1b:45:70:ff:
         58:99:de:f4:fd:a4:d2:55:a6:20:2d:74:d6:34:bc:41:a3:50:
         5f:01:27:56:b4:be:27:75:06:af:12:2e:75:98:8d:fc:02:31:
         00:8b:f5:77:6c:d4:c8:65:aa:e0:0b:2c:ee:14:9d:27:37:a4:
         f9:53:a5:51:e4:29:83:d7:f8:90:31:5b:42:9f:0a:f5:fe:ae:
         00:68:e7:8c:49:0f:b6:6f:5b:5b:15:f2:e7
-----BEGIN CERTIFICATE-----
MIICGzCCAaGgAwIBAgIQQdKd0XLq7qeAwSxs6S+HUjAKBggqhkjOPQQDAzBPMQsw
CQYDVQQGEwJVUzEpMCcGA1UEChMgSW50ZXJuZXQgU2VjdXJpdHkgUmVzZWFyY2gg
R3JvdXAxFTATBgNVBAMTDElTUkcgUm9vdCBYMjAeFw0yMDA5MDQwMDAwMDBaFw00
MDA5MTcxNjAwMDBaME8xCzAJBgNVBAYTAlVTMSkwJwYDVQQKEyBJbnRlcm5ldCBT
ZWN1cml0eSBSZXNlYXJjaCBHcm91cDEVMBMGA1UEAxMMSVNSRyBSb290IFgyMHYw
EAYHKoZIzj0CAQYFK4EEACIDYgAEzZvVn4CDCuwJSvMWSj5cz3es3mcFDR0HttwW
+1qLFNvicWDEukWVEYmO6gbf9yoWHKS5xcUy4APgHoIYOIvXRdgKam7mAHf7AlF9
ItgKbppbd9/w+kHsOdx1ymgHDB/qo0IwQDAOBgNVHQ8BAf8EBAMCAQYwDwYDVR0T
AQH/BAUwAwEB/zAdBgNVHQ4EFgQUfEKWrt5LSDv6kviejM9ti6lyN5UwCgYIKoZI
zj0EAwMDaAAwZQIwe3lORlCEwkSHRhtFcP9Ymd70/aTSVaYgLXTWNLxBo1BfASdW
tL4ndQavEi51mI38AjEAi/V3bNTIZargCyzuFJ0nN6T5U6VR5CmD1/iQMVtCnwr1
/q4AaOeMSQ+2b1tbFfLn
-----END CERTIFICATE-----
