Certificate:
    Data:
        Version: 3 (0x2)
        Serial Number:
            7c:2a:0c:21:3f:c6:55:53:45:c9:1f:19:1f:b8:4e:fa
        Signature Algorithm: sha256WithRSAEncryption
        Issuer: OU = GlobalSign Root CA - R3, O = GlobalSign, CN = GlobalSign
        Validity
            Not Before: Apr 20 12:00:00 2022 GMT
            Not After : Apr 20 00:00:00 2025 GMT
        Subject: C = BE, O = GlobalSign nv-sa, CN = GlobalSign Atlas R3 DV TLS CA 2022 Q3
        Subject Public Key Info:
            Public Key Algorithm: rsaEncryption
                Public-Key: (2048 bit)
                Modulus:
                    00:b8:a8:7a:66:3c:4e:66:9c:ce:37:a5:54:35:4d:
                    36:c7:99:d3:a8:27:36:f2:2f:c6:d5:18:3e:e9:09:
                    dd:05:d6:d7:2c:34:32:7c:08:63:49:d1:10:37:e5:
                    78:5d:11:62:ce:6d:fb:2f:3f:37:94:db:8f:7b:30:
                    e9:5e:2c:d9:55:3f:b2:db:b9:a0:b5:60:37:8b:a4:
                    06:32:35:50:a4:09:af:0a:45:ff:a8:1f:9b:65:8e:
                    dd:4a:e0:40:a1:e3:63:37:58:90:dd:75:3b:fc:0e:
                    1c:82:40:98:bd:70:b1:c1:48:14:14:3c:04:4b:69:
                    dd:d4:9c:01:a6:e9:21:e3:82:0a:fe:e4:aa:bf:34:
                    a0:8c:cb:c9:79:6e:3e:5c:6a:52:9e:c4:ed:2b:c5:
                    69:fe:50:3c:93:9d:b5:ff:2d:28:a8:6c:06:6c:9d:
                    c5:af:b2:59:fb:59:77:0d:74:7a:88:84:a4:d4:1d:
                    d4:ba:20:06:cc:b5:1e:48:4e:74:21:15:86:75:c0:
                    cc:5a:d1:05:cf:57:16:7a:13:17:ec:c2:4a:ae:d5:
                    1e:72:aa:22:5a:8c:9c:82:32:c4:10:e6:42:6e:21:
                    86:68:7c:80:23:30:35:d3:bd:b0:5e:0a:29:2b:f0:
                    14:b1:18:37:d9:59:25:c3:e7:38:d9:e9:d4:2d:36:
                    35:65
                Exponent: 65537 (0x10001)
        X509v3 extensions:
            X509v3 Key Usage: critical
                Digital Signature, Certificate Sign, CRL Sign
            X509v3 Extended Key Usage: 
                TLS Web Server Authentication, TLS Web Client Authentication
            X509v3 Basic Constraints: critical
                CA:TRUE, pathlen:0
            X509v3 Subject Key Identifier: 
                FA:91:39:63:9A:FB:AD:10:24:E5:BE:B5:B9:DA:AB:D9:C4:46:69:AB
            X509v3 Authority Key Identifier: 
                8F:F0:4B:7F:A8:2E:45:24:AE:4D:50:FA:63:9A:8B:DE:E2:DD:1B:BC
            Authority Information Access: 
                OCSP - URI:http://ocsp2.globalsign.com/rootr3
                CA Issuers - URI:http://secure.globalsign.com/cacert/root-r3.crt
            X509v3 CRL Distribution Points: 
                Full Name:
                  URI:http://crl.globalsign.com/root-r3.crl
            X509v3 Certificate Policies: 
                Policy: 2.23.140.1.2.1
                Policy: 1.3.6.1.4.1.4146.10.1.3
    Signature Algorithm: sha256WithRSAEncryption
    Signature Value:
        14:33:2c:79:e5:3f:82:c6:70:3f:da:59:38:a7:bb:a2:76:ac:
        61:18:05:68:57:d9:0d:fb:8a:46:bc:f1:a8:e8:0c:70:02:1d:
        c6:2f:97:ed:36:3e:9e:52:86:2f:5c:62:d8:d5:47:43:9a:73:
        d1:2b:25:87:9f:44:b4:14:eb:26:bc:21:47:74:20:bd:9f:a4:
        bf:b3:80:1d:4d:35:7d:cd:b9:b5:da:55:f2:90:50:c8:b2:17:
        4e:0e:b4:61:88:29:5f:44:5d:03:7f:57:91:81:d0:eb:30:ae:
        d5:2a:ec:82:20:ce:4e:d2:b0:8b:95:02:61:73:d8:69:34:f4:
        ad:63:0e:5c:e4:20:1f:a9:7d:ed:8e:e5:1c:04:bb:22:9f:c7:
        a9:22:ca:99:3d:02:a7:67:e8:06:2d:fa:04:6b:bb:49:d2:6c:
        99:57:63:6c:2d:c2:61:78:e1:20:b1:fb:f6:bf:e1:82:39:39:
        3c:7b:ef:7d:1a:95:4a:b2:72:da:55:90:ae:ed:dd:e2:70:90:
        7c:1a:ee:b5:32:5a:5d:cf:d6:fa:45:f2:9e:01:0c:31:2f:89:
        84:fe:31:60:0f:fd:ee:a6:5b:84:d5:c7:18:e6:a4:f9:40:30:
        29:18:1e:fe:fc:41:b5:b9:29:05:75:8b:62:1a:5b:22:2e:bf:
        e4:59:6c:b0
-----BEGIN CERTIFICATE-----
MIIEjzCCA3egAwIBAgIQfCoMIT/GVVNFyR8ZH7hO+jANBgkqhkiG9w0BAQsFADBM
MSAwHgYDVQQLExdHbG9iYWxTaWduIFJvb3QgQ0EgLSBSMzETMBEGA1UEChMKR2xv
YmFsU2lnbjETMBEGA1UEAxMKR2xvYmFsU2lnbjAeFw0yMjA0MjAxMjAwMDBaFw0y
NTA0MjAwMDAwMDBaMFgxCzAJBgNVBAYTAkJFMRkwFwYDVQQKExBHbG9iYWxTaWdu
IG52LXNhMS4wLAYDVQQDEyVHbG9iYWxTaWduIEF0bGFzIFIzIERWIFRMUyBDQSAy
MDIyIFEzMIIBIjANBgkqhkiG9w0BAQEFAAOCAQ8AMIIBCgKCAQEAuKh6ZjxOZpzO
N6VUNU02x5nTqCc28i/G1Rg+6QndBdbXLDQyfAhjSdEQN+V4XRFizm37Lz83lNuP
ezDpXizZVT+y27mgtWA3i6QGMjVQpAmvCkX/qB+bZY7dSuBAoeNjN1iQ3XU7/A4c
gkCYvXCxwUgUFDwES2nd1JwBpukh44IK/uSqvzSgjMvJeW4+XGpSnsTtK8Vp/lA8
k521/y0oqGwGbJ3Fr7JZ+1l3DXR6iISk1B3UuiAGzLUeSE50IRWGdcDMWtEFz1cW
ehMX7MJKrtUecqoiWoycgjLEEOZCbiGGaHyAIzA1072wXgopK/AUsRg32Vklw+c4
2enULTY1ZQIDAQABo4IBXzCCAVswDgYDVR0PAQH/BAQDAgGGMB0GA1UdJQQWMBQG
CCsGAQUFBwMBBggrBgEFBQcDAjASBgNVHRMBAf8ECDAGAQH/AgEAMB0GA1UdDgQW
BBT6kTljmvutECTlvrW52qvZxEZpqzAfBgNVHSMEGDAWgBSP8Et/qC5FJK5NUPpj
move4t0bvDB7BggrBgEFBQcBAQRvMG0wLgYIKwYBBQUHMAGGImh0dHA6Ly9vY3Nw
Mi5nbG9iYWxzaWduLmNvbS9yb290cjMwOwYIKwYBBQUHMAKGL2h0dHA6Ly9zZWN1
cmUuZ2xvYmFsc2lnbi5jb20vY2FjZXJ0L3Jvb3QtcjMuY3J0MDYGA1UdHwQvMC0w
K6ApoCeGJWh0dHA6Ly9jcmwuZ2xvYmFsc2lnbi5jb20vcm9vdC1yMy5jcmwwIQYD
VR0gBBowGDAIBgZngQwBAgEwDAYKKwYBBAGgMgoBAzANBgkqhkiG9w0BAQsFAAOC
AQEAFDMseeU/gsZwP9pZOKe7onasYRgFaFfZDfuKRrzxqOgMcAIdxi+X7TY+nlKG
L1xi2NVHQ5pz0Sslh59EtBTrJrwhR3QgvZ+kv7OAHU01fc25tdpV8pBQyLIXTg60
YYgpX0RdA39XkYHQ6zCu1SrsgiDOTtKwi5UCYXPYaTT0rWMOXOQgH6l97Y7lHAS7
Ip/HqSLKmT0Cp2foBi36BGu7SdJsmVdjbC3CYXjhILH79r/hgjk5PHvvfRqVSrJy
2lWQru3d4nCQfBrutTJaXc/W+kXyngEMMS+JhP4xYA/97qZbhNXHGOak+UAwKRge
/vxBtbkpBXWLYhpbIi6/5FlssA==
-----END CERTIFICATE-----
Certificate:
    Data:
        Version: 3 (0x2)
        Serial Number:
            04:00:00:00:00:01:21:58:53:08:a2
        Signature Algorithm: sha256WithRSAEncryption
        Issuer: OU = GlobalSign Root CA - R3, O = GlobalSign, CN = GlobalSign
        Validity
            Not Before: Mar 18 10:00:00 2009 GMT
            Not After : Mar 18 10:00:00 2029 GMT
        Subject: OU = GlobalSign Root CA - R3, O = GlobalSign, CN = GlobalSign
        Subject Public Key Info:
            Public Key Algorithm: rsaEncryption
                Public-Key: (2048 bit)
                Modulus:
                    00:cc:25:76:90:79:06:78:22:16:f5:c0:83:b6:84:
                    ca:28:9e:fd:05:76:11:c5:ad:88:72:fc:46:02:43:
                    c7:b2:8a:9d:04:5f:24:cb:2e:4b:e1:60:82:46:e1:
                    52:ab:0c:81:47:70:6c:dd:64:d1:eb:f5:2c:a3:0f:
                    82:3d:0c:2b:ae:97:d7:b6:14:86:10:79:bb:3b:13:
                    80:77:8c:08:e1:49:d2:6a:62:2f:1f:5e:fa:96:68:
                    df:89:27:95:38:9f:06:d7:3e:c9:cb:26:59:0d:73:
                    de:b0:c8:e9:26:0e:83:15:c6:ef:5b:8b:d2:04:60:
                    ca:49:a6:28:f6:69:3b:f6:cb:c8:28:91:e5:9d:8a:
                    61:57:37:ac:74:14:dc:74:e0:3a:ee:72:2f:2e:9c:
                    fb:d0:bb:bf:f5:3d:00:e1:06:33:e8:82:2b:ae:53:
                    a6:3a:16:73:8c:dd:41:0e:20:3a:c0:b4:a7:a1:e9:
                    b2:4f:90:2e:32:60:e9:57:cb:b9:04:92:68:68:e5:
                    38:26:60:75:b2:9f:77:ff:91:14:ef:ae:20:49:fc:
                    ad:40:15:48:d1:02:31:61:19:5e:b8:97:ef:ad:77:
                    b7:64:9a:7a:bf:5f:c1:13:ef:9b:62:fb:0d:6c:e0:
                    54:69:16:a9:03:da:6e:e9:83:93:71:76:c6:69:85:
                    82:17
                Exponent: 65537 (0x10001)
        X509v3 extensions:
            X509v3 Key Usage: critical
                Certificate Sign, CRL Sign
            X509v3 Basic Constraints: critical
                CA:TRUE
            X509v3 Subject Key Identifier: 
                8F:F0:4B:7F:A8:2E:45:24:AE:4D:50:FA:63:9A:8B:DE:E2:DD:1B:BC
    Signature Algorithm: sha256WithRSAEncryption
    Signature Value:
        4b:40:db:c0:50:aa:fe:c8:0c:ef:f7:96:54:45:49:bb:96:00:
        09:41:ac:b3:13:86:86:28:07:33:ca:6b:e6:74:b9:ba:00:2d:
        ae:a4:0a:d3:f5:f1:f1:0f:8a:bf:73:67:4a:83:c7:44:7b:78:
        e0:af:6e:6c:6f:03:29:8e:33:39:45:c3:8e:e4:b9:57:6c:aa:
        fc:12:96:ec:53:c6:2d:e4:24:6c:b9:94:63:fb:dc:53:68:67:
        56:3e:83:b8:cf:35:21:c3:c9:68:fe:ce:da:c2:53:aa:cc:90:
        8a:e9:f0:5d:46:8c:95:dd:7a:58:28:1a:2f:1d:de:cd:00:37:
        41:8f:ed:44:6d:d7:53:28:97:7e:f3:67:04:1e:15:d7:8a:96:
        b4:d3:de:4c:27:a4:4c:1b:73:73:76:f4:17:99:c2:1f:7a:0e:
        e3:2d:08:ad:0a:1c:2c:ff:3c:ab:55:0e:0f:91:7e:36:eb:c3:
        57:49:be:e1:2e:2d:7c:60:8b:c3:41:51:13:23:9d:ce:f7:32:
        6b:94:01:a8:99:e7:2c:33:1f:3a:3b:25:d2:86:40:ce:3b:2c:
        86:78:c9:61:2f:14:ba:ee:db:55:6f:df:84:ee:05:09:4d:bd:
        28:d8:72:ce:d3:62:50:65:1e:eb:92:97:83:31:d9:b3:b5:ca:
        47:58:3f:5f
-----BEGIN CERTIFICATE-----
MIIDXzCCAkegAwIBAgILBAAAAAABIVhTCKIwDQYJKoZIhvcNAQELBQAwTDEgMB4G
A1UECxMXR2xvYmFsU2lnbiBSb290IENBIC0gUjMxEzARBgNVBAoTCkdsb2JhbFNp
Z24xEzARBgNVBAMTCkdsb2JhbFNpZ24wHhcNMDkwMzE4MTAwMDAwWhcNMjkwMzE4
MTAwMDAwWjBMMSAwHgYDVQQLExdHbG9iYWxTaWduIFJvb3QgQ0EgLSBSMzETMBEG
A1UEChMKR2xvYmFsU2lnbjETMBEGA1UEAxMKR2xvYmFsU2lnbjCCASIwDQYJKoZI
hvcNAQEBBQADggEPADCCAQoCggEBAMwldpB5BngiFvXAg7aEyiie/QV2EcWtiHL8
RgJDx7KKnQRfJMsuS+FggkbhUqsMgUdwbN1k0ev1LKMPgj0MK66X17YUhhB5uzsT
gHeMCOFJ0mpiLx9e+pZo34knlTifBtc+ycsmWQ1z3rDI6SYOgxXG71uL0gRgykmm
KPZpO/bLyCiR5Z2KYVc3rHQU3HTgOu5yLy6c+9C7v/U9AOEGM+iCK65TpjoWc4zd
QQ4gOsC0p6Hpsk+QLjJg6VfLuQSSaGjlOCZgdbKfd/+RFO+uIEn8rUAVSNECMWEZ
XriX7613t2Saer9fwRPvm2L7DWzgVGkWqQPabumDk3F2xmmFghcCAwEAAaNCMEAw
DgYDVR0PAQH/BAQDAgEGMA8GA1UdEwEB/wQFMAMBAf8wHQYDVR0OBBYEFI/wS3+o
LkUkrk1Q+mOai97i3Ru8MA0GCSqGSIb3DQEBCwUAA4IBAQBLQNvAUKr+yAzv95ZU
RUm7lgAJQayzE4aGKAczymvmdLm6AC2upArT9fHxD4q/c2dKg8dEe3jgr25sbwMp
jjM5RcOO5LlXbKr8EpbsU8Yt5CRsuZRj+9xTaGdWPoO4zzUhw8lo/s7awlOqzJCK
6fBdRoyV3XpYKBovHd7NADdBj+1EbddTKJd+82cEHhXXipa0095MJ6RMG3NzdvQX
mcIfeg7jLQitChws/zyrVQ4PkX4268NXSb7hLi18YIvDQVETI53O9zJrlAGomecs
Mx86OyXShkDOOyyGeMlhLxS67ttVb9+E7gUJTb0o2HLO02JQZR7rkpeDMdmztcpH
WD9f
-----END CERTIFICATE-----
