Certificate:
    Data:
        Version: 3 (0x2)
        Serial Number: 7 (0x7)
        Signature Algorithm: sha256WithRSAEncryption
        Issuer: C = US, ST = Arizona, L = Scottsdale, O = "GoDaddy.com, Inc.", CN = Go Daddy Root Certificate Authority - G2
        Validity
            Not Before: May  3 07:00:00 2011 GMT
            Not After : May  3 07:00:00 2031 GMT
        Subject: C = US, ST = Arizona, L = Scottsdale, O = "GoDaddy.com, Inc.", OU = http://certs.godaddy.com/repository/, CN = Go Daddy Secure Certificate Authority - G2
        Subject Public Key Info:
            Public Key Algorithm: rsaEncryption
                RSA Public-Key: (2048 bit)
                Modulus:
                    00:b9:e0:cb:10:d4:af:76:bd:d4:93:62:eb:30:64:
                    b8:81:08:6c:c3:04:d9:62:17:8e:2f:ff:3e:65:cf:
                    8f:ce:62:e6:3c:52:1c:da:16:45:4b:55:ab:78:6b:
                    63:83:62:90:ce:0f:69:6c:99:c8:1a:14:8b:4c:cc:
                    45:33:ea:88:dc:9e:a3:af:2b:fe:80:61:9d:79:57:
                    c4:cf:2e:f4:3f:30:3c:5d:47:fc:9a:16:bc:c3:37:
                    96:41:51:8e:11:4b:54:f8:28:be:d0:8c:be:f0:30:
                    38:1e:f3:b0:26:f8:66:47:63:6d:de:71:26:47:8f:
                    38:47:53:d1:46:1d:b4:e3:dc:00:ea:45:ac:bd:bc:
                    71:d9:aa:6f:00:db:db:cd:30:3a:79:4f:5f:4c:47:
                    f8:1d:ef:5b:c2:c4:9d:60:3b:b1:b2:43:91:d8:a4:
                    33:4e:ea:b3:d6:27:4f:ad:25:8a:a5:c6:f4:d5:d0:
                    a6:ae:74:05:64:57:88:b5:44:55:d4:2d:2a:3a:3e:
                    f8:b8:bd:e9:32:0a:02:94:64:c4:16:3a:50:f1:4a:
                    ae:e7:79:33:af:0c:20:07:7f:e8:df:04:39:c2:69:
                    02:6c:63:52:fa:77:c1:1b:c8:74:87:c8:b9:93:18:
                    50:54:35:4b:69:4e:bc:3b:d3:49:2e:1f:dc:c1:d2:
                    52:fb
                Exponent: 65537 (0x10001)
        X509v3 extensions:
            X509v3 Basic Constraints: critical
                CA:TRUE
            X509v3 Key Usage: critical
                Certificate Sign, CRL Sign
            X509v3 Subject Key Identifier: 
                40:C2:BD:27:8E:CC:34:83:30:A2:33:D7:FB:6C:B3:F0:B4:2C:80:CE
            X509v3 Authority Key Identifier: 
                keyid:3A:9A:85:07:10:67:28:B6:EF:F6:BD:05:41:6E:20:C1:94:DA:0F:DE

            Authority Information Access: 
                OCSP - URI:http://ocsp.godaddy.com/

            X509v3 CRL Distribution Points: 

                Full Name:
                  URI:http://crl.godaddy.com/gdroot-g2.crl

            X509v3 Certificate Policies: 
                Policy: X509v3 Any Policy
                  CPS: https://certs.godaddy.com/repository/

    Signature Algorithm: sha256WithRSAEncryption
         08:7e:6c:93:10:c8:38:b8:96:a9:90:4b:ff:a1:5f:4f:04:ef:
         6c:3e:9c:88:06:c9:50:8f:a6:73:f7:57:31:1b:be:bc:e4:2f:
         db:f8:ba:d3:5b:e0:b4:e7:e6:79:62:0e:0c:a2:d7:6a:63:73:
         31:b5:f5:a8:48:a4:3b:08:2d:a2:5d:90:d7:b4:7c:25:4f:11:
         56:30:c4:b6:44:9d:7b:2c:9d:e5:5e:e6:ef:0c:61:aa:bf:e4:
         2a:1b:ee:84:9e:b8:83:7d:c1:43:ce:44:a7:13:70:0d:91:1f:
         f4:c8:13:ad:83:60:d9:d8:72:a8:73:24:1e:b5:ac:22:0e:ca:
         17:89:62:58:44:1b:ab:89:25:01:00:0f:cd:c4:1b:62:db:51:
         b4:d3:0f:51:2a:9b:f4:bc:73:fc:76:ce:36:a4:cd:d9:d8:2c:
         ea:ae:9b:f5:2a:b2:90:d1:4d:75:18:8a:3f:8a:41:90:23:7d:
         5b:4b:fe:a4:03:58:9b:46:b2:c3:60:60:83:f8:7d:50:41:ce:
         c2:a1:90:c3:bb:ef:02:2f:d2:15:54:ee:44:15:d9:0a:ae:a7:
         8a:33:ed:b1:2d:76:36:26:dc:04:eb:9f:f7:61:1f:15:dc:87:
         6f:ee:46:96:28:ad:a1:26:7d:0a:09:a7:2e:04:a3:8d:bc:f8:
         bc:04:30:01
-----BEGIN CERTIFICATE-----
MIIE0DCCA7igAwIBAgIBBzANBgkqhkiG9w0BAQsFADCBgzELMAkGA1UEBhMCVVMx
EDAOBgNVBAgTB0FyaXpvbmExEzARBgNVBAcTClNjb3R0c2RhbGUxGjAYBgNVBAoT
EUdvRGFkZHkuY29tLCBJbmMuMTEwLwYDVQQDEyhHbyBEYWRkeSBSb290IENlcnRp
ZmljYXRlIEF1dGhvcml0eSAtIEcyMB4XDTExMDUwMzA3MDAwMFoXDTMxMDUwMzA3
MDAwMFowgbQxCzAJBgNVBAYTAlVTMRAwDgYDVQQIEwdBcml6b25hMRMwEQYDVQQH
EwpTY290dHNkYWxlMRowGAYDVQQKExFHb0RhZGR5LmNvbSwgSW5jLjEtMCsGA1UE
CxMkaHR0cDovL2NlcnRzLmdvZGFkZHkuY29tL3JlcG9zaXRvcnkvMTMwMQYDVQQD
EypHbyBEYWRkeSBTZWN1cmUgQ2VydGlmaWNhdGUgQXV0aG9yaXR5IC0gRzIwggEi
MA0GCSqGSIb3DQEBAQUAA4IBDwAwggEKAoIBAQC54MsQ1K92vdSTYuswZLiBCGzD
BNliF44v/z5lz4/OYuY8UhzaFkVLVat4a2ODYpDOD2lsmcgaFItMzEUz6ojcnqOv
K/6AYZ15V8TPLvQ/MDxdR/yaFrzDN5ZBUY4RS1T4KL7QjL7wMDge87Am+GZHY23e
cSZHjzhHU9FGHbTj3ADqRay9vHHZqm8A29vNMDp5T19MR/gd71vCxJ1gO7GyQ5HY
pDNO6rPWJ0+tJYqlxvTV0KaudAVkV4i1RFXULSo6Pvi4vekyCgKUZMQWOlDxSq7n
eTOvDCAHf+jfBDnCaQJsY1L6d8EbyHSHyLmTGFBUNUtpTrw700kuH9zB0lL7AgMB
AAGjggEaMIIBFjAPBgNVHRMBAf8EBTADAQH/MA4GA1UdDwEB/wQEAwIBBjAdBgNV
HQ4EFgQUQMK9J47MNIMwojPX+2yz8LQsgM4wHwYDVR0jBBgwFoAUOpqFBxBnKLbv
9r0FQW4gwZTaD94wNAYIKwYBBQUHAQEEKDAmMCQGCCsGAQUFBzABhhhodHRwOi8v
b2NzcC5nb2RhZGR5LmNvbS8wNQYDVR0fBC4wLDAqoCigJoYkaHR0cDovL2NybC5n
b2RhZGR5LmNvbS9nZHJvb3QtZzIuY3JsMEYGA1UdIAQ/MD0wOwYEVR0gADAzMDEG
CCsGAQUFBwIBFiVodHRwczovL2NlcnRzLmdvZGFkZHkuY29tL3JlcG9zaXRvcnkv
MA0GCSqGSIb3DQEBCwUAA4IBAQAIfmyTEMg4uJapkEv/oV9PBO9sPpyIBslQj6Zz
91cxG7685C/b+LrTW+C05+Z5Yg4MotdqY3MxtfWoSKQ7CC2iXZDXtHwlTxFWMMS2
RJ17LJ3lXubvDGGqv+QqG+6EnriDfcFDzkSnE3ANkR/0yBOtg2DZ2HKocyQetawi
DsoXiWJYRBuriSUBAA/NxBti21G00w9RKpv0vHP8ds42pM3Z2Czqrpv1KrKQ0U11
GIo/ikGQI31bS/6kA1ibRrLDYGCD+H1QQc7CoZDDu+8CL9IVVO5EFdkKrqeKM+2x
LXY2JtwE65/3YR8V3Idv7kaWKK2hJn0KCacuBKONvPi8BDAB
-----END CERTIFICATE-----
Certificate:
    Data:
        Version: 3 (0x2)
        Serial Number: 0 (0x0)
        Signature Algorithm: sha256WithRSAEncryption
        Issuer: C = US, ST = Arizona, L = Scottsdale, O = "GoDaddy.com, Inc.", CN = Go Daddy Root Certificate Authority - G2
        Validity
            Not Before: Sep  1 00:00:00 2009 GMT
            Not After : Dec 31 23:59:59 2037 GMT
        Subject: C = US, ST = Arizona, L = Scottsdale, O = "GoDaddy.com, Inc.", CN = Go Daddy Root Certificate Authority - G2
        Subject Public Key Info:
            Public Key Algorithm: rsaEncryption
                RSA Public-Key: (2048 bit)
                Modulus:
                    00:bf:71:62:08:f1:fa:59:34:f7:1b:c9:18:a3:f7:
                    80:49:58:e9:22:83:13:a6:c5:20:43:01:3b:84:f1:
                    e6:85:49:9f:27:ea:f6:84:1b:4e:a0:b4:db:70:98:
                    c7:32:01:b1:05:3e:07:4e:ee:f4:fa:4f:2f:59:30:
                    22:e7:ab:19:56:6b:e2:80:07:fc:f3:16:75:80:39:
                    51:7b:e5:f9:35:b6:74:4e:a9:8d:82:13:e4:b6:3f:
                    a9:03:83:fa:a2:be:8a:15:6a:7f:de:0b:c3:b6:19:
                    14:05:ca:ea:c3:a8:04:94:3b:46:7c:32:0d:f3:00:
                    66:22:c8:8d:69:6d:36:8c:11:18:b7:d3:b2:1c:60:
                    b4:38:fa:02:8c:ce:d3:dd:46:07:de:0a:3e:eb:5d:
                    7c:c8:7c:fb:b0:2b:53:a4:92:62:69:51:25:05:61:
                    1a:44:81:8c:2c:a9:43:96:23:df:ac:3a:81:9a:0e:
                    29:c5:1c:a9:e9:5d:1e:b6:9e:9e:30:0a:39:ce:f1:
                    88:80:fb:4b:5d:cc:32:ec:85:62:43:25:34:02:56:
                    27:01:91:b4:3b:70:2a:3f:6e:b1:e8:9c:88:01:7d:
                    9f:d4:f9:db:53:6d:60:9d:bf:2c:e7:58:ab:b8:5f:
                    46:fc:ce:c4:1b:03:3c:09:eb:49:31:5c:69:46:b3:
                    e0:47
                Exponent: 65537 (0x10001)
        X509v3 extensions:
            X509v3 Basic Constraints: critical
                CA:TRUE
            X509v3 Key Usage: critical
                Certificate Sign, CRL Sign
            X509v3 Subject Key Identifier: 
                3A:9A:85:07:10:67:28:B6:EF:F6:BD:05:41:6E:20:C1:94:DA:0F:DE
    Signature Algorithm: sha256WithRSAEncryption
         99:db:5d:79:d5:f9:97:59:67:03:61:f1:7e:3b:06:31:75:2d:
         a1:20:8e:4f:65:87:b4:f7:a6:9c:bc:d8:e9:2f:d0:db:5a:ee:
         cf:74:8c:73:b4:38:42:da:05:7b:f8:02:75:b8:fd:a5:b1:d7:
         ae:f6:d7:de:13:cb:53:10:7e:8a:46:d1:97:fa:b7:2e:2b:11:
         ab:90:b0:27:80:f9:e8:9f:5a:e9:37:9f:ab:e4:df:6c:b3:85:
         17:9d:3d:d9:24:4f:79:91:35:d6:5f:04:eb:80:83:ab:9a:02:
         2d:b5:10:f4:d8:90:c7:04:73:40:ed:72:25:a0:a9:9f:ec:9e:
         ab:68:12:99:57:c6:8f:12:3a:09:a4:bd:44:fd:06:15:37:c1:
         9b:e4:32:a3:ed:38:e8:d8:64:f3:2c:7e:14:fc:02:ea:9f:cd:
         ff:07:68:17:db:22:90:38:2d:7a:8d:d1:54:f1:69:e3:5f:33:
         ca:7a:3d:7b:0a:e3:ca:7f:5f:39:e5:e2:75:ba:c5:76:18:33:
         ce:2c:f0:2f:4c:ad:f7:b1:e7:ce:4f:a8:c4:9b:4a:54:06:c5:
         7f:7d:d5:08:0f:e2:1c:fe:7e:17:b8:ac:5e:f6:d4:16:b2:43:
         09:0c:4d:f6:a7:6b:b4:99:84:65:ca:7a:88:e2:e2:44:be:5c:
         f7:ea:1c:f5
-----BEGIN CERTIFICATE-----
MIIDxTCCAq2gAwIBAgIBADANBgkqhkiG9w0BAQsFADCBgzELMAkGA1UEBhMCVVMx
EDAOBgNVBAgTB0FyaXpvbmExEzARBgNVBAcTClNjb3R0c2RhbGUxGjAYBgNVBAoT
EUdvRGFkZHkuY29tLCBJbmMuMTEwLwYDVQQDEyhHbyBEYWRkeSBSb290IENlcnRp
ZmljYXRlIEF1dGhvcml0eSAtIEcyMB4XDTA5MDkwMTAwMDAwMFoXDTM3MTIzMTIz
NTk1OVowgYMxCzAJBgNVBAYTAlVTMRAwDgYDVQQIEwdBcml6b25hMRMwEQYDVQQH
EwpTY290dHNkYWxlMRowGAYDVQQKExFHb0RhZGR5LmNvbSwgSW5jLjExMC8GA1UE
AxMoR28gRGFkZHkgUm9vdCBDZXJ0aWZpY2F0ZSBBdXRob3JpdHkgLSBHMjCCASIw
DQYJKoZIhvcNAQEBBQADggEPADCCAQoCggEBAL9xYgjx+lk09xvJGKP3gElY6SKD
E6bFIEMBO4Tx5oVJnyfq9oQbTqC023CYxzIBsQU+B07u9PpPL1kwIuerGVZr4oAH
/PMWdYA5UXvl+TW2dE6pjYIT5LY/qQOD+qK+ihVqf94Lw7YZFAXK6sOoBJQ7Rnwy
DfMAZiLIjWltNowRGLfTshxgtDj6AozO091GB94KPutdfMh8+7ArU6SSYmlRJQVh
GkSBjCypQ5Yj36w6gZoOKcUcqeldHraenjAKOc7xiID7S13MMuyFYkMlNAJWJwGR
tDtwKj9useiciAF9n9T521NtYJ2/LOdYq7hfRvzOxBsDPAnrSTFcaUaz4EcCAwEA
AaNCMEAwDwYDVR0TAQH/BAUwAwEB/zAOBgNVHQ8BAf8EBAMCAQYwHQYDVR0OBBYE
FDqahQcQZyi27/a9BUFuIMGU2g/eMA0GCSqGSIb3DQEBCwUAA4IBAQCZ21151fmX
WWcDYfF+OwYxdS2hII5PZYe096acvNjpL9DbWu7PdIxztDhC2gV7+AJ1uP2lsdeu
9tfeE8tTEH6KRtGX+rcuKxGrkLAngPnon1rpN5+r5N9ss4UXnT3ZJE95kTXWXwTr
gIOrmgIttRD02JDHBHNA7XIloKmf7J6raBKZV8aPEjoJpL1E/QYVN8Gb5DKj7Tjo
2GTzLH4U/ALqn83/B2gX2yKQOC16jdFU8WnjXzPKej17CuPKf1855eJ1usV2GDPO
LPAvTK33sefOT6jEm0pUBsV/fdUID+Ic/n4XuKxe9tQWskMJDE32p2u0mYRlynqI
4uJEvlz36hz1
-----END CERTIFICATE-----
