Certificate:
    Data:
        Version: 3 (0x2)
        Serial Number:
            01:e3:b4:9a:a1:8d:8a:a9:81:25:69:50:b8
        Signature Algorithm: sha256WithRSAEncryption
        Issuer: OU = GlobalSign Root CA - R2, O = GlobalSign, CN = GlobalSign
        Validity
            Not Before: Jun 15 00:00:42 2017 GMT
            Not After : Dec 15 00:00:42 2021 GMT
        Subject: C = US, O = Google Trust Services, CN = GTS CA 1O1
        Subject Public Key Info:
            Public Key Algorithm: rsaEncryption
                RSA Public-Key: (2048 bit)
                Modulus:
                    00:d0:18:cf:45:d4:8b:cd:d3:9c:e4:40:ef:7e:b4:
                    dd:69:21:1b:c9:cf:3c:8e:4c:75:b9:0f:31:19:84:
                    3d:9e:3c:29:ef:50:0d:10:93:6f:05:80:80:9f:2a:
                    a0:bd:12:4b:02:e1:3d:9f:58:16:24:fe:30:9f:0b:
                    74:77:55:93:1d:4b:f7:4d:e1:92:82:10:f6:51:ac:
                    0c:c3:b2:22:94:0f:34:6b:98:10:49:e7:0b:9d:83:
                    39:dd:20:c6:1c:2d:ef:d1:18:61:65:e7:23:83:20:
                    a8:23:12:ff:d2:24:7f:d4:2f:e7:44:6a:5b:4d:d7:
                    50:66:b0:af:9e:42:63:05:fb:e0:1c:c4:63:61:af:
                    9f:6a:33:ff:62:97:bd:48:d9:d3:7c:14:67:dc:75:
                    dc:2e:69:e8:f8:6d:78:69:d0:b7:10:05:b8:f1:31:
                    c2:3b:24:fd:1a:33:74:f8:23:e0:ec:6b:19:8a:16:
                    c6:e3:cd:a4:cd:0b:db:b3:a4:59:60:38:88:3b:ad:
                    1d:b9:c6:8c:a7:53:1b:fc:bc:d9:a4:ab:bc:dd:3c:
                    61:d7:93:15:98:ee:81:bd:8f:e2:64:47:20:40:06:
                    4e:d7:ac:97:e8:b9:c0:59:12:a1:49:25:23:e4:ed:
                    70:34:2c:a5:b4:63:7c:f9:a3:3d:83:d1:cd:6d:24:
                    ac:07
                Exponent: 65537 (0x10001)
        X509v3 extensions:
            X509v3 Key Usage: critical
                Digital Signature, Certificate Sign, CRL Sign
            X509v3 Extended Key Usage: 
                TLS Web Server Authentication, TLS Web Client Authentication
            X509v3 Basic Constraints: critical
                CA:TRUE, pathlen:0
            X509v3 Subject Key Identifier: 
                98:D1:F8:6E:10:EB:CF:9B:EC:60:9F:18:90:1B:A0:EB:7D:09:FD:2B
            X509v3 Authority Key Identifier: 
                keyid:9B:E2:07:57:67:1C:1E:C0:6A:06:DE:59:B4:9A:2D:DF:DC:19:86:2E

            Authority Information Access: 
                OCSP - URI:http://ocsp.pki.goog/gsr2

            X509v3 CRL Distribution Points: 

                Full Name:
                  URI:http://crl.pki.goog/gsr2/gsr2.crl

            X509v3 Certificate Policies: 
                Policy: 2.23.140.1.2.2
                  CPS: https://pki.goog/repository/

    Signature Algorithm: sha256WithRSAEncryption
         1a:80:3e:36:79:fb:f3:2e:a9:46:37:7d:5e:54:16:35:ae:c7:
         4e:08:99:fe:bd:d1:34:69:26:52:66:07:3d:0a:ba:49:cb:62:
         f4:f1:1a:8e:fc:11:4f:68:96:4c:74:2b:d3:67:de:b2:a3:aa:
         05:8d:84:4d:4c:20:65:0f:a5:96:da:0d:16:f8:6c:3b:db:6f:
         04:23:88:6b:3a:6c:c1:60:bd:68:9f:71:8e:ee:2d:58:34:07:
         f0:d5:54:e9:86:59:fd:7b:5e:0d:21:94:f5:8c:c9:a8:f8:d8:
         f2:ad:cc:0f:1a:f3:9a:a7:a9:04:27:f9:a3:c9:b0:ff:02:78:
         6b:61:ba:c7:35:2b:e8:56:fa:4f:c3:1c:0c:ed:b6:3c:b4:4b:
         ea:ed:cc:e1:3c:ec:dc:0d:8c:d6:3e:9b:ca:42:58:8b:cc:16:
         21:17:40:bc:a2:d6:66:ef:da:c4:15:5b:cd:89:aa:9b:09:26:
         e7:32:d2:0d:6e:67:20:02:5b:10:b0:90:09:9c:0c:1f:9e:ad:
         d8:3b:ea:a1:fc:6c:e8:10:5c:08:52:19:51:2a:71:bb:ac:7a:
         b5:dd:15:ed:2b:c9:08:2a:2c:8a:b4:a6:21:ab:63:ff:d7:52:
         49:50:d0:89:b7:ad:f2:af:fb:50:ae:2f:e1:95:0d:f3:46:ad:
         9d:9c:f5:ca
-----BEGIN CERTIFICATE-----
MIIESjCCAzKgAwIBAgINAeO0mqGNiqmBJWlQuDANBgkqhkiG9w0BAQsFADBMMSAw
HgYDVQQLExdHbG9iYWxTaWduIFJvb3QgQ0EgLSBSMjETMBEGA1UEChMKR2xvYmFs
U2lnbjETMBEGA1UEAxMKR2xvYmFsU2lnbjAeFw0xNzA2MTUwMDAwNDJaFw0yMTEy
MTUwMDAwNDJaMEIxCzAJBgNVBAYTAlVTMR4wHAYDVQQKExVHb29nbGUgVHJ1c3Qg
U2VydmljZXMxEzARBgNVBAMTCkdUUyBDQSAxTzEwggEiMA0GCSqGSIb3DQEBAQUA
A4IBDwAwggEKAoIBAQDQGM9F1IvN05zkQO9+tN1pIRvJzzyOTHW5DzEZhD2ePCnv
UA0Qk28FgICfKqC9EksC4T2fWBYk/jCfC3R3VZMdS/dN4ZKCEPZRrAzDsiKUDzRr
mBBJ5wudgzndIMYcLe/RGGFl5yODIKgjEv/SJH/UL+dEaltN11BmsK+eQmMF++Ac
xGNhr59qM/9il71I2dN8FGfcddwuaej4bXhp0LcQBbjxMcI7JP0aM3T4I+DsaxmK
FsbjzaTNC9uzpFlgOIg7rR25xoynUxv8vNmkq7zdPGHXkxWY7oG9j+JkRyBABk7X
rJfoucBZEqFJJSPk7XA0LKW0Y3z5oz2D0c1tJKwHAgMBAAGjggEzMIIBLzAOBgNV
HQ8BAf8EBAMCAYYwHQYDVR0lBBYwFAYIKwYBBQUHAwEGCCsGAQUFBwMCMBIGA1Ud
EwEB/wQIMAYBAf8CAQAwHQYDVR0OBBYEFJjR+G4Q68+b7GCfGJAboOt9Cf0rMB8G
A1UdIwQYMBaAFJviB1dnHB7AagbeWbSaLd/cGYYuMDUGCCsGAQUFBwEBBCkwJzAl
BggrBgEFBQcwAYYZaHR0cDovL29jc3AucGtpLmdvb2cvZ3NyMjAyBgNVHR8EKzAp
MCegJaAjhiFodHRwOi8vY3JsLnBraS5nb29nL2dzcjIvZ3NyMi5jcmwwPwYDVR0g
BDgwNjA0BgZngQwBAgIwKjAoBggrBgEFBQcCARYcaHR0cHM6Ly9wa2kuZ29vZy9y
ZXBvc2l0b3J5LzANBgkqhkiG9w0BAQsFAAOCAQEAGoA+Nnn78y6pRjd9XlQWNa7H
TgiZ/r3RNGkmUmYHPQq6Scti9PEajvwRT2iWTHQr02fesqOqBY2ETUwgZQ+lltoN
FvhsO9tvBCOIazpswWC9aJ9xju4tWDQH8NVU6YZZ/XteDSGU9YzJqPjY8q3MDxrz
mqepBCf5o8mw/wJ4a2G6xzUr6Fb6T8McDO22PLRL6u3M4Tzs3A2M1j6bykJYi8wW
IRdAvKLWZu/axBVbzYmqmwkm5zLSDW5nIAJbELCQCZwMH56t2Dvqofxs6BBcCFIZ
USpxu6x6td0V7SvJCCosirSmIatj/9dSSVDQibet8q/7UK4v4ZUN80atnZz1yg==
-----END CERTIFICATE-----
Certificate:
    Data:
        Version: 3 (0x2)
        Serial Number:
            04:00:00:00:00:01:0f:86:26:e6:0d
        Signature Algorithm: sha1WithRSAEncryption
        Issuer: OU = GlobalSign Root CA - R2, O = GlobalSign, CN = GlobalSign
        Validity
            Not Before: Dec 15 08:00:00 2006 GMT
            Not After : Dec 15 08:00:00 2021 GMT
        Subject: OU = GlobalSign Root CA - R2, O = GlobalSign, CN = GlobalSign
        Subject Public Key Info:
            Public Key Algorithm: rsaEncryption
                RSA Public-Key: (2048 bit)
                Modulus:
                    00:a6:cf:24:0e:be:2e:6f:28:99:45:42:c4:ab:3e:
                    21:54:9b:0b:d3:7f:84:70:fa:12:b3:cb:bf:87:5f:
                    c6:7f:86:d3:b2:30:5c:d6:fd:ad:f1:7b:dc:e5:f8:
                    60:96:09:92:10:f5:d0:53:de:fb:7b:7e:73:88:ac:
                    52:88:7b:4a:a6:ca:49:a6:5e:a8:a7:8c:5a:11:bc:
                    7a:82:eb:be:8c:e9:b3:ac:96:25:07:97:4a:99:2a:
                    07:2f:b4:1e:77:bf:8a:0f:b5:02:7c:1b:96:b8:c5:
                    b9:3a:2c:bc:d6:12:b9:eb:59:7d:e2:d0:06:86:5f:
                    5e:49:6a:b5:39:5e:88:34:ec:bc:78:0c:08:98:84:
                    6c:a8:cd:4b:b4:a0:7d:0c:79:4d:f0:b8:2d:cb:21:
                    ca:d5:6c:5b:7d:e1:a0:29:84:a1:f9:d3:94:49:cb:
                    24:62:91:20:bc:dd:0b:d5:d9:cc:f9:ea:27:0a:2b:
                    73:91:c6:9d:1b:ac:c8:cb:e8:e0:a0:f4:2f:90:8b:
                    4d:fb:b0:36:1b:f6:19:7a:85:e0:6d:f2:61:13:88:
                    5c:9f:e0:93:0a:51:97:8a:5a:ce:af:ab:d5:f7:aa:
                    09:aa:60:bd:dc:d9:5f:df:72:a9:60:13:5e:00:01:
                    c9:4a:fa:3f:a4:ea:07:03:21:02:8e:82:ca:03:c2:
                    9b:8f
                Exponent: 65537 (0x10001)
        X509v3 extensions:
            X509v3 Key Usage: critical
                Certificate Sign, CRL Sign
            X509v3 Basic Constraints: critical
                CA:TRUE
            X509v3 Subject Key Identifier: 
                9B:E2:07:57:67:1C:1E:C0:6A:06:DE:59:B4:9A:2D:DF:DC:19:86:2E
            X509v3 CRL Distribution Points: 

                Full Name:
                  URI:http://crl.globalsign.net/root-r2.crl

            X509v3 Authority Key Identifier: 
                keyid:9B:E2:07:57:67:1C:1E:C0:6A:06:DE:59:B4:9A:2D:DF:DC:19:86:2E

    Signature Algorithm: sha1WithRSAEncryption
         99:81:53:87:1c:68:97:86:91:ec:e0:4a:b8:44:0b:ab:81:ac:
         27:4f:d6:c1:b8:1c:43:78:b3:0c:9a:fc:ea:2c:3c:6e:61:1b:
         4d:4b:29:f5:9f:05:1d:26:c1:b8:e9:83:00:62:45:b6:a9:08:
         93:b9:a9:33:4b:18:9a:c2:f8:87:88:4e:db:dd:71:34:1a:c1:
         54:da:46:3f:e0:d3:2a:ab:6d:54:22:f5:3a:62:cd:20:6f:ba:
         29:89:d7:dd:91:ee:d3:5c:a2:3e:a1:5b:41:f5:df:e5:64:43:
         2d:e9:d5:39:ab:d2:a2:df:b7:8b:d0:c0:80:19:1c:45:c0:2d:
         8c:e8:f8:2d:a4:74:56:49:c5:05:b5:4f:15:de:6e:44:78:39:
         87:a8:7e:bb:f3:79:18:91:bb:f4:6f:9d:c1:f0:8c:35:8c:5d:
         01:fb:c3:6d:b9:ef:44:6d:79:46:31:7e:0a:fe:a9:82:c1:ff:
         ef:ab:6e:20:c4:50:c9:5f:9d:4d:9b:17:8c:0c:e5:01:c9:a0:
         41:6a:73:53:fa:a5:50:b4:6e:25:0f:fb:4c:18:f4:fd:52:d9:
         8e:69:b1:e8:11:0f:de:88:d8:fb:1d:49:f7:aa:de:95:cf:20:
         78:c2:60:12:db:25:40:8c:6a:fc:7e:42:38:40:64:12:f7:9e:
         81:e1:93:2e
-----BEGIN CERTIFICATE-----
MIIDujCCAqKgAwIBAgILBAAAAAABD4Ym5g0wDQYJKoZIhvcNAQEFBQAwTDEgMB4G
A1UECxMXR2xvYmFsU2lnbiBSb290IENBIC0gUjIxEzARBgNVBAoTCkdsb2JhbFNp
Z24xEzARBgNVBAMTCkdsb2JhbFNpZ24wHhcNMDYxMjE1MDgwMDAwWhcNMjExMjE1
MDgwMDAwWjBMMSAwHgYDVQQLExdHbG9iYWxTaWduIFJvb3QgQ0EgLSBSMjETMBEG
A1UEChMKR2xvYmFsU2lnbjETMBEGA1UEAxMKR2xvYmFsU2lnbjCCASIwDQYJKoZI
hvcNAQEBBQADggEPADCCAQoCggEBAKbPJA6+Lm8omUVCxKs+IVSbC9N/hHD6ErPL
v4dfxn+G07IwXNb9rfF73OX4YJYJkhD10FPe+3t+c4isUoh7SqbKSaZeqKeMWhG8
eoLrvozps6yWJQeXSpkqBy+0Hne/ig+1AnwblrjFuTosvNYSuetZfeLQBoZfXklq
tTleiDTsvHgMCJiEbKjNS7SgfQx5TfC4LcshytVsW33hoCmEofnTlEnLJGKRILzd
C9XZzPnqJworc5HGnRusyMvo4KD0L5CLTfuwNhv2GXqF4G3yYROIXJ/gkwpRl4pa
zq+r1feqCapgvdzZX99yqWATXgAByUr6P6TqBwMhAo6CygPCm48CAwEAAaOBnDCB
mTAOBgNVHQ8BAf8EBAMCAQYwDwYDVR0TAQH/BAUwAwEB/zAdBgNVHQ4EFgQUm+IH
V2ccHsBqBt5ZtJot39wZhi4wNgYDVR0fBC8wLTAroCmgJ4YlaHR0cDovL2NybC5n
bG9iYWxzaWduLm5ldC9yb290LXIyLmNybDAfBgNVHSMEGDAWgBSb4gdXZxwewGoG
3lm0mi3f3BmGLjANBgkqhkiG9w0BAQUFAAOCAQEAmYFThxxol4aR7OBKuEQLq4Gs
J0/WwbgcQ3izDJr86iw8bmEbTUsp9Z8FHSbBuOmDAGJFtqkIk7mpM0sYmsL4h4hO
291xNBrBVNpGP+DTKqttVCL1OmLNIG+6KYnX3ZHu01yiPqFbQfXf5WRDLenVOavS
ot+3i9DAgBkcRcAtjOj4LaR0VknFBbVPFd5uRHg5h6h+u/N5GJG79G+dwfCMNYxd
AfvDbbnvRG15RjF+Cv6pgsH/76tuIMRQyV+dTZsXjAzlAcmgQWpzU/qlULRuJQ/7
TBj0/VLZjmmx6BEP3ojY+x1J96relc8geMJgEtslQIxq/H5COEBkEveegeGTLg==
-----END CERTIFICATE-----
