Certificate:
    Data:
        Version: 3 (0x2)
        Serial Number: 7 (0x7)
        Signature Algorithm: sha256WithRSAEncryption
        Issuer: C = US, ST = Arizona, L = Scottsdale, O = "Starfield Technologies, Inc.", CN = Starfield Root Certificate Authority - G2
        Validity
            Not Before: May  3 07:00:00 2011 GMT
            Not After : May  3 07:00:00 2031 GMT
        Subject: C = US, ST = Arizona, L = Scottsdale, O = "Starfield Technologies, Inc.", OU = http://certs.starfieldtech.com/repository/, CN = Starfield Secure Certificate Authority - G2
        Subject Public Key Info:
            Public Key Algorithm: rsaEncryption
                RSA Public-Key: (2048 bit)
                Modulus:
                    00:e5:90:66:4b:ec:f9:46:71:a9:20:83:be:e9:6c:
                    bf:4a:c9:48:69:81:75:4e:6d:24:f6:cb:17:13:f8:
                    b0:71:59:84:7a:6b:2b:85:a4:34:b5:16:e5:cb:cc:
                    e9:41:70:2c:a4:2e:d6:fa:32:7d:e1:a8:de:94:10:
                    ac:31:c1:c0:d8:6a:ff:59:27:ab:76:d6:fc:0b:74:
                    6b:b8:a7:ae:3f:c4:54:f4:b4:31:44:dd:93:56:8c:
                    a4:4c:5e:9b:89:cb:24:83:9b:e2:57:7d:b7:d8:12:
                    1f:c9:85:6d:f4:d1:80:f1:50:9b:87:ae:d4:0b:10:
                    05:fb:27:ba:28:6d:17:e9:0e:d6:4d:b9:39:55:06:
                    ff:0a:24:05:7e:2f:c6:1d:72:6c:d4:8b:29:8c:57:
                    7d:da:d9:eb:66:1a:d3:4f:a7:df:7f:52:c4:30:c5:
                    a5:c9:0e:02:c5:53:bf:77:38:68:06:24:c3:66:c8:
                    37:7e:30:1e:45:71:23:35:ff:90:d8:2a:9d:8d:e7:
                    b0:92:4d:3c:7f:2a:0a:93:dc:cd:16:46:65:f7:60:
                    84:8b:76:4b:91:27:73:14:92:e0:ea:ee:8f:16:ea:
                    8d:0e:3e:76:17:bf:7d:89:80:80:44:43:e7:2d:e0:
                    43:09:75:da:36:e8:ad:db:89:3a:f5:5d:12:8e:23:
                    04:83
                Exponent: 65537 (0x10001)
        X509v3 extensions:
            X509v3 Basic Constraints: critical
                CA:TRUE
            X509v3 Key Usage: critical
                Certificate Sign, CRL Sign
            X509v3 Subject Key Identifier: 
                25:45:81:68:50:26:38:3D:3B:2D:2C:BE:CD:6A:D9:B6:3D:B3:66:63
            X509v3 Authority Key Identifier: 
                keyid:7C:0C:32:1F:A7:D9:30:7F:C4:7D:68:A3:62:A8:A1:CE:AB:07:5B:27

            Authority Information Access: 
                OCSP - URI:http://ocsp.starfieldtech.com/

            X509v3 CRL Distribution Points: 

                Full Name:
                  URI:http://crl.starfieldtech.com/sfroot-g2.crl

            X509v3 Certificate Policies: 
                Policy: X509v3 Any Policy
                  CPS: https://certs.starfieldtech.com/repository/

    Signature Algorithm: sha256WithRSAEncryption
         56:65:ca:fe:f3:3f:0a:a8:93:8b:18:c7:de:43:69:13:34:20:
         be:4e:5f:78:a8:6b:9c:db:6a:4d:41:db:c1:13:ec:dc:31:00:
         22:5e:f7:00:9e:0c:e0:34:65:34:f9:b1:3a:4e:48:c8:12:81:
         88:5c:5b:3e:08:53:7a:f7:1a:64:df:b8:50:61:cc:53:51:40:
         29:4b:c2:f4:ae:3a:5f:e4:ca:ad:26:cc:4e:61:43:e5:fd:57:
         a6:37:70:ce:43:2b:b0:94:c3:92:e9:e1:5f:aa:10:49:b7:69:
         e4:e0:d0:1f:64:a4:2b:cd:1f:6f:a0:f8:84:24:18:ce:79:3d:
         a9:91:bf:54:18:13:89:99:54:11:0d:55:c5:26:0b:79:4f:5a:
         1c:6e:f9:63:db:14:80:a4:07:ab:fa:b2:a5:b9:88:dd:91:fe:
         65:3b:a4:a3:79:be:89:4d:e1:d0:b0:f4:c8:17:0c:0a:96:14:
         7c:09:b7:6c:e1:c2:d8:55:d4:18:a0:aa:41:69:70:24:a3:b9:
         ef:e9:5a:dc:3e:eb:94:4a:f0:b7:de:5f:0e:76:fa:fb:fb:69:
         03:45:40:50:ee:72:0c:a4:12:86:81:cd:13:d1:4e:c4:3c:ca:
         4e:0d:d2:26:f1:00:b7:b4:a6:a2:e1:6e:7a:81:fd:30:ac:7a:
         1f:c7:59:7b
-----BEGIN CERTIFICATE-----
MIIFADCCA+igAwIBAgIBBzANBgkqhkiG9w0BAQsFADCBjzELMAkGA1UEBhMCVVMx
EDAOBgNVBAgTB0FyaXpvbmExEzARBgNVBAcTClNjb3R0c2RhbGUxJTAjBgNVBAoT
HFN0YXJmaWVsZCBUZWNobm9sb2dpZXMsIEluYy4xMjAwBgNVBAMTKVN0YXJmaWVs
ZCBSb290IENlcnRpZmljYXRlIEF1dGhvcml0eSAtIEcyMB4XDTExMDUwMzA3MDAw
MFoXDTMxMDUwMzA3MDAwMFowgcYxCzAJBgNVBAYTAlVTMRAwDgYDVQQIEwdBcml6
b25hMRMwEQYDVQQHEwpTY290dHNkYWxlMSUwIwYDVQQKExxTdGFyZmllbGQgVGVj
aG5vbG9naWVzLCBJbmMuMTMwMQYDVQQLEypodHRwOi8vY2VydHMuc3RhcmZpZWxk
dGVjaC5jb20vcmVwb3NpdG9yeS8xNDAyBgNVBAMTK1N0YXJmaWVsZCBTZWN1cmUg
Q2VydGlmaWNhdGUgQXV0aG9yaXR5IC0gRzIwggEiMA0GCSqGSIb3DQEBAQUAA4IB
DwAwggEKAoIBAQDlkGZL7PlGcakgg77pbL9KyUhpgXVObST2yxcT+LBxWYR6ayuF
pDS1FuXLzOlBcCykLtb6Mn3hqN6UEKwxwcDYav9ZJ6t21vwLdGu4p64/xFT0tDFE
3ZNWjKRMXpuJyySDm+JXfbfYEh/JhW300YDxUJuHrtQLEAX7J7oobRfpDtZNuTlV
Bv8KJAV+L8YdcmzUiymMV33a2etmGtNPp99/UsQwxaXJDgLFU793OGgGJMNmyDd+
MB5FcSM1/5DYKp2N57CSTTx/KgqT3M0WRmX3YISLdkuRJ3MUkuDq7o8W6o0OPnYX
v32JgIBEQ+ct4EMJddo26K3biTr1XRKOIwSDAgMBAAGjggEsMIIBKDAPBgNVHRMB
Af8EBTADAQH/MA4GA1UdDwEB/wQEAwIBBjAdBgNVHQ4EFgQUJUWBaFAmOD07LSy+
zWrZtj2zZmMwHwYDVR0jBBgwFoAUfAwyH6fZMH/EfWijYqihzqsHWycwOgYIKwYB
BQUHAQEELjAsMCoGCCsGAQUFBzABhh5odHRwOi8vb2NzcC5zdGFyZmllbGR0ZWNo
LmNvbS8wOwYDVR0fBDQwMjAwoC6gLIYqaHR0cDovL2NybC5zdGFyZmllbGR0ZWNo
LmNvbS9zZnJvb3QtZzIuY3JsMEwGA1UdIARFMEMwQQYEVR0gADA5MDcGCCsGAQUF
BwIBFitodHRwczovL2NlcnRzLnN0YXJmaWVsZHRlY2guY29tL3JlcG9zaXRvcnkv
MA0GCSqGSIb3DQEBCwUAA4IBAQBWZcr+8z8KqJOLGMfeQ2kTNCC+Tl94qGuc22pN
QdvBE+zcMQAiXvcAngzgNGU0+bE6TkjIEoGIXFs+CFN69xpk37hQYcxTUUApS8L0
rjpf5MqtJsxOYUPl/VemN3DOQyuwlMOS6eFfqhBJt2nk4NAfZKQrzR9voPiEJBjO
eT2pkb9UGBOJmVQRDVXFJgt5T1ocbvlj2xSApAer+rKluYjdkf5lO6Sjeb6JTeHQ
sPTIFwwKlhR8Cbds4cLYVdQYoKpBaXAko7nv6VrcPuuUSvC33l8Odvr7+2kDRUBQ
7nIMpBKGgc0T0U7EPMpODdIm8QC3tKai4W56gf0wrHofx1l7
-----END CERTIFICATE-----
Certificate:
    Data:
        Version: 3 (0x2)
        Serial Number: 0 (0x0)
        Signature Algorithm: sha256WithRSAEncryption
        Issuer: C = US, ST = Arizona, L = Scottsdale, O = "Starfield Technologies, Inc.", CN = Starfield Root Certificate Authority - G2
        Validity
            Not Before: Sep  1 00:00:00 2009 GMT
            Not After : Dec 31 23:59:59 2037 GMT
        Subject: C = US, ST = Arizona, L = Scottsdale, O = "Starfield Technologies, Inc.", CN = Starfield Root Certificate Authority - G2
        Subject Public Key Info:
            Public Key Algorithm: rsaEncryption
                RSA Public-Key: (2048 bit)
                Modulus:
                    00:bd:ed:c1:03:fc:f6:8f:fc:02:b1:6f:5b:9f:48:
                    d9:9d:79:e2:a2:b7:03:61:56:18:c3:47:b6:d7:ca:
                    3d:35:2e:89:43:f7:a1:69:9b:de:8a:1a:fd:13:20:
                    9c:b4:49:77:32:29:56:fd:b9:ec:8c:dd:22:fa:72:
                    dc:27:61:97:ee:f6:5a:84:ec:6e:19:b9:89:2c:dc:
                    84:5b:d5:74:fb:6b:5f:c5:89:a5:10:52:89:46:55:
                    f4:b8:75:1c:e6:7f:e4:54:ae:4b:f8:55:72:57:02:
                    19:f8:17:71:59:eb:1e:28:07:74:c5:9d:48:be:6c:
                    b4:f4:a4:b0:f3:64:37:79:92:c0:ec:46:5e:7f:e1:
                    6d:53:4c:62:af:cd:1f:0b:63:bb:3a:9d:fb:fc:79:
                    00:98:61:74:cf:26:82:40:63:f3:b2:72:6a:19:0d:
                    99:ca:d4:0e:75:cc:37:fb:8b:89:c1:59:f1:62:7f:
                    5f:b3:5f:65:30:f8:a7:b7:4d:76:5a:1e:76:5e:34:
                    c0:e8:96:56:99:8a:b3:f0:7f:a4:cd:bd:dc:32:31:
                    7c:91:cf:e0:5f:11:f8:6b:aa:49:5c:d1:99:94:d1:
                    a2:e3:63:5b:09:76:b5:56:62:e1:4b:74:1d:96:d4:
                    26:d4:08:04:59:d0:98:0e:0e:e6:de:fc:c3:ec:1f:
                    90:f1
                Exponent: 65537 (0x10001)
        X509v3 extensions:
            X509v3 Basic Constraints: critical
                CA:TRUE
            X509v3 Key Usage: critical
                Certificate Sign, CRL Sign
            X509v3 Subject Key Identifier: 
                7C:0C:32:1F:A7:D9:30:7F:C4:7D:68:A3:62:A8:A1:CE:AB:07:5B:27
    Signature Algorithm: sha256WithRSAEncryption
         11:59:fa:25:4f:03:6f:94:99:3b:9a:1f:82:85:39:d4:76:05:
         94:5e:e1:28:93:6d:62:5d:09:c2:a0:a8:d4:b0:75:38:f1:34:
         6a:9d:e4:9f:8a:86:26:51:e6:2c:d1:c6:2d:6e:95:20:4a:92:
         01:ec:b8:8a:67:7b:31:e2:67:2e:8c:95:03:26:2e:43:9d:4a:
         31:f6:0e:b5:0c:bb:b7:e2:37:7f:22:ba:00:a3:0e:7b:52:fb:
         6b:bb:3b:c4:d3:79:51:4e:cd:90:f4:67:07:19:c8:3c:46:7a:
         0d:01:7d:c5:58:e7:6d:e6:85:30:17:9a:24:c4:10:e0:04:f7:
         e0:f2:7f:d4:aa:0a:ff:42:1d:37:ed:94:e5:64:59:12:20:77:
         38:d3:32:3e:38:81:75:96:73:fa:68:8f:b1:cb:ce:1f:c5:ec:
         fa:9c:7e:cf:7e:b1:f1:07:2d:b6:fc:bf:ca:a4:bf:d0:97:05:
         4a:bc:ea:18:28:02:90:bd:54:78:09:21:71:d3:d1:7d:1d:d9:
         16:b0:a9:61:3d:d0:0a:00:22:fc:c7:7b:cb:09:64:45:0b:3b:
         40:81:f7:7d:7c:32:f5:98:ca:58:8e:7d:2a:ee:90:59:73:64:
         f9:36:74:5e:25:a1:f5:66:05:2e:7f:39:15:a9:2a:fb:50:8b:
         8e:85:69:f4
-----BEGIN CERTIFICATE-----
MIID3TCCAsWgAwIBAgIBADANBgkqhkiG9w0BAQsFADCBjzELMAkGA1UEBhMCVVMx
EDAOBgNVBAgTB0FyaXpvbmExEzARBgNVBAcTClNjb3R0c2RhbGUxJTAjBgNVBAoT
HFN0YXJmaWVsZCBUZWNobm9sb2dpZXMsIEluYy4xMjAwBgNVBAMTKVN0YXJmaWVs
ZCBSb290IENlcnRpZmljYXRlIEF1dGhvcml0eSAtIEcyMB4XDTA5MDkwMTAwMDAw
MFoXDTM3MTIzMTIzNTk1OVowgY8xCzAJBgNVBAYTAlVTMRAwDgYDVQQIEwdBcml6
b25hMRMwEQYDVQQHEwpTY290dHNkYWxlMSUwIwYDVQQKExxTdGFyZmllbGQgVGVj
aG5vbG9naWVzLCBJbmMuMTIwMAYDVQQDEylTdGFyZmllbGQgUm9vdCBDZXJ0aWZp
Y2F0ZSBBdXRob3JpdHkgLSBHMjCCASIwDQYJKoZIhvcNAQEBBQADggEPADCCAQoC
ggEBAL3twQP89o/8ArFvW59I2Z154qK3A2FWGMNHttfKPTUuiUP3oWmb3ooa/RMg
nLRJdzIpVv257IzdIvpy3Cdhl+72WoTsbhm5iSzchFvVdPtrX8WJpRBSiUZV9Lh1
HOZ/5FSuS/hVclcCGfgXcVnrHigHdMWdSL5stPSksPNkN3mSwOxGXn/hbVNMYq/N
Hwtjuzqd+/x5AJhhdM8mgkBj87JyahkNmcrUDnXMN/uLicFZ8WJ/X7NfZTD4p7dN
dloedl40wOiWVpmKs/B/pM293DIxfJHP4F8R+GuqSVzRmZTRouNjWwl2tVZi4Ut0
HZbUJtQIBFnQmA4O5t78w+wfkPECAwEAAaNCMEAwDwYDVR0TAQH/BAUwAwEB/zAO
BgNVHQ8BAf8EBAMCAQYwHQYDVR0OBBYEFHwMMh+n2TB/xH1oo2Kooc6rB1snMA0G
CSqGSIb3DQEBCwUAA4IBAQARWfolTwNvlJk7mh+ChTnUdgWUXuEok21iXQnCoKjU
sHU48TRqneSfioYmUeYs0cYtbpUgSpIB7LiKZ3sx4mcujJUDJi5DnUox9g61DLu3
4jd/IroAow57UvtruzvE03lRTs2Q9GcHGcg8RnoNAX3FWOdt5oUwF5okxBDgBPfg
8n/Uqgr/Qh037ZTlZFkSIHc40zI+OIF1lnP6aI+xy84fxez6nH7PfrHxBy22/L/K
pL/QlwVKvOoYKAKQvVR4CSFx09F9HdkWsKlhPdAKACL8x3vLCWRFCztAgfd9fDL1
mMpYjn0q7pBZc2T5NnReJaH1ZgUufzkVqSr7UIuOhWn0
-----END CERTIFICATE-----
